ccopy_reg
_reconstructor
p0
(cfeedparser
FeedParserDict
p1
c__builtin__
dict
p2
(dp3
S'feed'
p4
g0
(g1
g2
(dp5
S'updated'
p6
VThu, 12 Apr 2018 12:01:18 +0800
p7
sS'subtitle'
p8
V[\u534e\u58f0]\u8fa3\u773c\u65f6\u8bc4\u6700\u65b050\u7bc7
p9
sS'links'
p10
(lp11
g0
(g1
g2
(dp12
S'href'
p13
Vhttp://bbs.voc.com.cn/forum-76-1.html
p14
sS'type'
p15
Vtext/html
p16
sS'rel'
p17
Valternate
p18
stp19
Rp20
asS'language'
p21
Vzh-cn
p22
sS'rights'
p23
VCopyright(C) 2018 \u534e\u58f0\u8bba\u575b
p24
sS'image'
p25
g0
(g1
g2
(dp26
S'title_detail'
p27
g0
(g1
g2
(dp28
S'base'
p29
Vhttp://bbs.voc.com.cn/rss.php?fid=76
p30
sg15
Vtext/plain
p31
sg21
NsS'value'
p32
V\u534e\u58f0\u8bba\u575b
p33
stp34
Rp35
sg13
Vhttp://bbs.voc.com.cn/images/logo.gif
p36
sS'link'
p37
Vhttp://bbs.voc.com.cn/
p38
sg10
(lp39
g0
(g1
g2
(dp40
g13
g38
sg15
g16
sg17
g18
stp41
Rp42
asS'title'
p43
g33
stp44
Rp45
sS'subtitle_detail'
p46
g0
(g1
g2
(dp47
g29
Vhttp://bbs.voc.com.cn/rss.php?fid=76
p48
sg15
Vtext/html
p49
sg21
Nsg32
g9
stp50
Rp51
sg37
g14
sS'ttl'
p52
V5
p53
sS'rights_detail'
p54
g0
(g1
g2
(dp55
g29
Vhttp://bbs.voc.com.cn/rss.php?fid=76
p56
sg15
Vtext/plain
p57
sg21
Nsg32
g24
stp58
Rp59
sS'updated_parsed'
p60
ctime
struct_time
p61
((I2018
I4
I12
I4
I1
I18
I3
I102
I0
tp62
(dp63
tp64
Rp65
stp66
Rp67
sS'status'
p68
I200
sg6
S'Thu, 12 Apr 2018 04:01:18 GMT'
p69
sg60
g61
((I2018
I4
I12
I4
I1
I18
I3
I102
I0
tp70
(dp71
tp72
Rp73
sS'encoding'
p74
Vgb18030
p75
sS'bozo'
p76
I0
sS'headers'
p77
(dp78
S'x-cache'
p79
S'HIT'
p80
sS'content-encoding'
p81
S'gzip'
p82
sS'transfer-encoding'
p83
S'chunked'
p84
sS'set-cookie'
p85
S'__cfduid=dd1ff30e17b8f3609bbe9158e6c0df1bc1523505834; expires=Fri, 12-Apr-19 04:03:54 GMT; path=/; domain=.voc.com.cn; HttpOnly'
p86
sS'expires'
p87
S'Thu, 12 Apr 2018 04:06:18 GMT'
p88
sS'server'
p89
S'yunjiasu-nginx'
p90
sS'last-modified'
p91
g69
sS'connection'
p92
S'close'
p93
sS'x-server'
p94
S'p-squid-d01'
p95
sS'date'
p96
S'Thu, 12 Apr 2018 04:03:54 GMT'
p97
sS'cf-ray'
p98
S'40a2ce4b35fa66f4-TSN'
p99
sS'content-type'
p100
S'application/xml'
p101
ssg13
Vhttp://bbs.voc.com.cn/rss.php?fid=76
p102
sS'version'
p103
Vrss20
p104
sS'entries'
p105
(lp106
g0
(g1
g2
(dp107
S'summary_detail'
p108
g0
(g1
g2
(dp109
g29
Vhttp://bbs.voc.com.cn/rss.php?fid=76
p110
sg15
g49
sg21
Nsg32
V\u957f\u5b89\u57ce\u6559\u80b2\u5c40\u7684\u7535\u89c6\u95ee\u653f\uff0c\u6ee1\u610f\u5ea6\u4e3a\u767e\u5206\u4e4b\u4e8c\u5341\u4e00\u70b9\u516b\u4e5d\uff0c\u4e0d\u6ee1\u610f\u4e3a\u4e03\u5341\u516b\u70b9\u4e00\u4e00\u3002\u8fd9\u4e2a\u7ed3\u679c\uff0c\u5b9a\u7136\u4f7f\u7ba1\u7406\u8005\u4eec\u6c57\u989c\u3002\u4e5f\u53cd\u6620\u51fa\u5f53\u4e0b\u7684\u6559\u80b2\u5b58\u5728\u7684\u8bf8\u591a\u4e0d\u8db3\u548c\u77ed\u677f\u3002\u6559\u4e66\u80b2\u4eba\u662f\u4e3a\u672a\u6765\u8ba1\u3002\u81ea\u5c0f\u5904\u770b\uff0c\u6d89\u53ca\u5343\u5bb6\u4e07\u6237\uff0c\u5927\u5904\u843d\u811a\uff0c\u4e3a\u56fd\u5bb6\u4e4b\u660e\u671d\u3002\u800c\u56fd\u5bb6\u8fd9\u9ebd\u591a\u5e74\uff0c\u4e3a\u6b64\u4e5f\u5728\u57fa\u7840\u8bbe\u65bd\u4e0a\u5927\u529b\u6295\u5165\uff0c\u7ecf\u6d4e\u4e0a\u4e5f\u5168\u529b\u6276\u6301\uff0c\u5bf9\u6559\u80b2\u8005\u90a3\u4e5f\u662f\u63d0\u9ad8\u5f85\u9047\u6536\u5165\u3002\u4f46\u95ee\u653f\u7684\u6ee1\u610f\u5ea6\uff0c\u5b9e\u51fa\u610f\u5916\u3002\u597d\u50cf\u4e5f\u5728\u9884\u6599\u4e4b\u4e2d\u3001\u3001\u3001\u8bba\u53ca\u6559\u80b2\u8005\u7684\u6536\u5165\uff0c\u867d\u7136\u662f\u84dd\u9886\u4e4b\u5916\uff0c\u4f46\u8981\u8d70\u81f3\u7433\u7405\u6ee1\u76ee\u7684\u5e02\u573a\uff0c\u7269\u54c1\u53d1\u8fbe\u7684\u4eba\u95f4\uff0c\u4e5f\u96be\u968f\u5fc3\u6240\u6b32\u7684\u653e\u5f00\u624b\u811a\u3002\u7545\u5feb\u6dcb\u6f13\u7684\u6d12\u8131\u4e00\u628a\u3001\u3001\u3001\u65e9\u4e9b\u5e74\u524d\uff0c\u5c31\u6709\u67d0\u4e9b\u8bfe\u5916\u8f85 ...
p111
stp112
Rp113
sg10
(lp114
g0
(g1
g2
(dp115
g13
Vhttp://bbs.voc.com.cn/topic-8309190-1-1.html
p116
sg15
g16
sg17
g18
stp117
Rp118
asS'published_parsed'
p119
g61
((I2018
I4
I9
I11
I36
I12
I0
I99
I0
tp120
(dp121
tp122
Rp123
sS'author'
p124
V\u79e6\u5251
p125
sg43
V[\u539f\u521b]\u7535\u89c6\u95ee\u653f\u7684\u5c34\u5c2c\u3001\u3001\u3001
p126
sS'summary'
p127
g111
sS'title_detail'
p128
g0
(g1
g2
(dp129
g29
Vhttp://bbs.voc.com.cn/rss.php?fid=76
p130
sg15
g31
sg21
Nsg32
g126
stp131
Rp132
sg37
g116
sS'authors'
p133
(lp134
g0
(g1
g2
(dp135
S'name'
p136
g125
stp137
Rp138
asS'author_detail'
p139
g138
sS'tags'
p140
(lp141
g0
(g1
g2
(dp142
S'term'
p143
V\u8fa3\u773c\u65f6\u8bc4
p144
sS'scheme'
p145
NsS'label'
p146
Nstp147
Rp148
asS'published'
p149
VMon, 09 Apr 2018 19:36:12 +0800
p150
stp151
Rp152
ag0
(g1
g2
(dp153
S'summary_detail'
p154
g0
(g1
g2
(dp155
g29
Vhttp://bbs.voc.com.cn/rss.php?fid=76
p156
sg15
g49
sg21
Nsg32
V30\u5c81\u7684\u6797\u5b66\u951f\u8fce\u6765\u4e86\u4e00\u573a\u7262\u72f1\u4e4b\u707e\uff1a2017\u5e747\u670821\u65e5\uff0c\u4ed6\u56e0\u6d89\u5acc\u201c\u8bc8\u9a97\u7f6a\u201d\u88ab\u5b81\u56fd\u5e02\u68ee\u6797\u516c\u5b89\u5c40\u5211\u62d8\u3002\u529e\u6848\u673a\u5173\u5728\u6797\u5b66\u951f\u662f\u5426\u6784\u6210\u8bc8\u9a97\u7f6a\u7684\u95ee\u9898\u4e0a\uff0c\u4ea7\u751f\u4e86\u622a\u7136\u4e0d\u540c\u7684\u89c2\u70b9\u3002\u6d41\u8f6c\u5c71\u573a\u7684\u201c\u529f\u592b\u94b1\u201d\u6d59\u6c5f\u5b89\u5409\u76db\u4ea7\u767d\u8336\uff0c\u6797\u5b66\u951f\u548c\u7236\u4eb2\u6797\u5fc5\u8363\u4e00\u76f4\u4ee5\u79cd\u8336\u4e3a\u4e1a\u3002\u201c\u73b0\u5728\u5b89\u5409\u80fd\u79cd\u8336\u53f6\u7684\u65b0\u5f00\u5c71\u573a\u51e0\u4e4e\u6ca1\u6709\u4e86\uff0c\u6709\u4e5f\u662f\u79df\u91d1\u4e24\u4e07\u591a\u5143\u4e00\u4ea9\uff0c\u5b89\u5fbd\u5b81\u56fd\u548c\u5b89\u5409\u4e00\u5c71\u4e4b\u9694\uff0c\u6c14\u5019\u6761\u4ef6\u548c\u5b89\u5409\u5dee\u4e0d\u591a\uff0c\u6240\u4ee5\u5f88\u591a\u5b89\u5409\u4eba\u90fd\u53bb\u5b81\u56fd\u627e\u5c71\u573a\u79cd\u8336\u53f6\u3002\u201d\u6797\u5fc5\u8363\u544a\u8bc9\u6c11\u4e3b\u4e0e\u6cd5\u5236\u793e\u30022016\u5e74\u6625\uff0c\u6797\u5b66\u951f\u548c\u7236\u4eb2\u5546\u91cf\u540e\uff0c\u6253\u7b97\u53bb\u5b81\u56fd\u5bfb\u627e\u5c71\u573a\uff0c\u5f00\u5c71\u79cd\u8336\u3002\u591a\u6b21\u5f80\u8fd4\u5b89\u5409\u548c\u5b81\u56fd\u540e\uff0c\u6797\u5b66\u951f\u901a\u8fc7\u5f53\u5730\u4eba\u9c81 ...
p157
stp158
Rp159
sg10
(lp160
g0
(g1
g2
(dp161
g13
Vhttp://bbs.voc.com.cn/topic-8312975-1-1.html
p162
sg15
g16
sg17
g18
stp163
Rp164
asg119
g61
((I2018
I4
I11
I9
I40
I6
I2
I101
I0
tp165
(dp166
tp167
Rp168
sg124
V\u4e00\u4e03\u4e00\u9f50\u53d1
p169
sg43
V\u5b89\u5fbd\u5b81\u56fd\uff1a\u662f\u201c\u8f6c\u5305\u5c71\u573a\u83b7\u5229\u201d\u8fd8\u662f\u201c\u8bc8\u9a97\u201d\uff1f(\u8f6c\u8f7d)
p170
sg127
g157
sS'title_detail'
p171
g0
(g1
g2
(dp172
g29
Vhttp://bbs.voc.com.cn/rss.php?fid=76
p173
sg15
g31
sg21
Nsg32
g170
stp174
Rp175
sg37
g162
sg133
(lp176
g0
(g1
g2
(dp177
g136
g169
stp178
Rp179
asS'author_detail'
p180
g179
sg140
(lp181
g0
(g1
g2
(dp182
g143
V\u8fa3\u773c\u65f6\u8bc4
p183
sg145
Nsg146
Nstp184
Rp185
asg149
VWed, 11 Apr 2018 17:40:06 +0800
p186
stp187
Rp188
ag0
(g1
g2
(dp189
S'summary_detail'
p190
g0
(g1
g2
(dp191
g29
Vhttp://bbs.voc.com.cn/rss.php?fid=76
p192
sg15
g49
sg21
Nsg32
V\u5927\u5feb\u4eba\u5fc3\uff0c\u6709\u5bb3\u89c6\u9891\u88ab\u4e0b\u67b6\u529f\u5728\u5f53\u4ee3\u5229\u5728\u5b50\u5b59\u6587|\u6e05\u54f2\u6728\u8fd1\u65e5\uff0c\u4eca\u65e5\u5934\u6761\u548c\u5feb\u624b\u906d\u9047\u76d1\u7ba1\uff0c\u4eca\u65e5\u5934\u6761\u548c\u5feb\u624bApp\u88ab\u4e0b\u67b6\uff0c\u4eca\u65e5\u5934\u6761\u65d7\u4e0b\u5185\u6db5\u6bb5\u5b50\u88ab\u603b\u5c40\u8d23\u4ee4\u6c38\u4e45\u5173\u505c\u3002\u5e73\u5730\u8d77\u60ca\u96f7\u3002\u4e24\u5927\u7edf\u6cbb\u5e02\u573a\u5e76\u65e5\u6d3b\u8fc7\u4ebf\u7684\u65b0\u5a92\u4f53\u5e73\u53f0\uff0c\u7a81\u7136\u6210\u4e3a\u76d1\u7ba1\u7684\u76ee\u6807\u3002null\u59cb\u6599\u4e0d\u53ca\uff0c\u662f\u5f88\u591a\u4eba\u7684\u5171\u8bc6\uff0c\u4f46\u662f\u53c8\u5728\u60c5\u7406\u4e4b\u4e2d\u751a\u81f3\u662f\u4e07\u4f17\u671f\u76fc\u7684\u65f6\u4e0b\uff0c\u76d1\u7ba1\u5c42\u7ec8\u4e8e\u76f4\u63a5\u62ff\u4e0b\u55a7\u56a3\u5c18\u4e0a\u7684\u77ed\u89c6\u9891\u5e73\u53f0\uff0c\u8ba9\u5f88\u591a\u4eba\u7fd8\u9996\u4ee5\u5f85\uff0c\u56e0\u4e3a\uff0c\u4e2d\u56fd\u6cb8\u817e\u7684\u201c\u6c5f\u6e56\u201d\u6587\u5316\u5e02\u573a\u771f\u7684\u9700\u8981\u6765\u4e00\u6b21\u6709\u529b\u5ea6\u7684\u6574\u6539\uff0c\u957f\u671f\u4ee5\u6765\uff0c\u7f51\u7edc\u5e73\u53f0\u5b58\u5728\u7684\u5927\u91cf\u77ed\u89c6\u9891\u8282\u76ee\uff0c\u5185\u5bb9\u5145\u65a5\u7740\u5ba3\u626c\u6deb\u79fd\u3001\u66b4\u529b\u3001\u6559\u5506\u72af\u7f6a\u6216\u8005\u5371\u5bb3\u793e\u4f1a\u516c\u5fb7\u7684\u5185\u5bb9\uff0c ...
p193
stp194
Rp195
sg10
(lp196
g0
(g1
g2
(dp197
g13
Vhttp://bbs.voc.com.cn/topic-8313001-1-1.html
p198
sg15
g16
sg17
g18
stp199
Rp200
asg119
g61
((I2018
I4
I11
I9
I49
I3
I2
I101
I0
tp201
(dp202
tp203
Rp204
sg124
Vntkf
p205
sg43
V\u5927\u5feb\u4eba\u5fc3\uff0c\u6709\u5bb3\u89c6\u9891\u88ab\u4e0b\u67b6\u529f\u5728\u5f53\u4ee3\u5229\u5728\u5b50\u5b59     [\u539f\u521b]
p206
sg127
g193
sS'title_detail'
p207
g0
(g1
g2
(dp208
g29
Vhttp://bbs.voc.com.cn/rss.php?fid=76
p209
sg15
g31
sg21
Nsg32
g206
stp210
Rp211
sg37
g198
sg133
(lp212
g0
(g1
g2
(dp213
g136
g205
stp214
Rp215
asS'author_detail'
p216
g215
sg140
(lp217
g0
(g1
g2
(dp218
g143
V\u8fa3\u773c\u65f6\u8bc4
p219
sg145
Nsg146
Nstp220
Rp221
asg149
VWed, 11 Apr 2018 17:49:03 +0800
p222
stp223
Rp224
ag0
(g1
g2
(dp225
S'summary_detail'
p226
g0
(g1
g2
(dp227
g29
Vhttp://bbs.voc.com.cn/rss.php?fid=76
p228
sg15
g49
sg21
Nsg32
V
p229
stp230
Rp231
sg10
(lp232
g0
(g1
g2
(dp233
g13
Vhttp://bbs.voc.com.cn/topic-8313040-1-1.html
p234
sg15
g16
sg17
g18
stp235
Rp236
asg119
g61
((I2018
I4
I11
I10
I6
I38
I2
I101
I0
tp237
(dp238
tp239
Rp240
sg124
Vwghql
p241
sg43
V\u901a\u8bc6\u8bfe\u7f18\u4f55\u53d8\u201c\u6c34\u8bfe\u201d\uff1f[\u539f\u521b]
p242
sg127
g229
sS'title_detail'
p243
g0
(g1
g2
(dp244
g29
Vhttp://bbs.voc.com.cn/rss.php?fid=76
p245
sg15
g31
sg21
Nsg32
g242
stp246
Rp247
sg37
g234
sg133
(lp248
g0
(g1
g2
(dp249
g136
g241
stp250
Rp251
asS'author_detail'
p252
g251
sg140
(lp253
g0
(g1
g2
(dp254
g143
V\u8fa3\u773c\u65f6\u8bc4
p255
sg145
Nsg146
Nstp256
Rp257
asg149
VWed, 11 Apr 2018 18:06:38 +0800
p258
stp259
Rp260
ag0
(g1
g2
(dp261
S'summary_detail'
p262
g0
(g1
g2
(dp263
g29
Vhttp://bbs.voc.com.cn/rss.php?fid=76
p264
sg15
g49
sg21
Nsg32
V\u643a\u7a0b\u6700\u8fd1\u53c8\u644a\u4e0a\u4e8b\u4e86\u3002\u77e5\u540d\u5a92\u4f53\u4eba\u738b\u5fd7\u5b89\u8fd9\u4e24\u5929\u5728\u5fae\u535a\u4e0a\u70ae\u8f70\u643a\u7a0b\uff1a\u5176\u56e2\u961f\u53bb\u6b66\u6c49\u91c7\u8bbf\uff0c\u4f46\u643a\u7a0bAPP\u6df7\u6dc6\u4e94\u661f\u548c\u8c6a\u534e\u9152\u5e97\u7684\u5206\u7c7b\uff0c\u7ed3\u679c\u660e\u660e\u662f\u8981\u9009\u62e9\u4e94\u661f\u7ea7\u9152\u5e97\u7684\uff0c\u5374\u88ab\u8bef\u5bfc\u9009\u62e9\u4e86\u643a\u7a0b\u81ea\u5b9a\u7684\u6240\u8c13\u201c\u8c6a\u534e\u9152\u5e97\u201d\u3002\u5bf9\u4e8e\u201c\u8c6a\u534e\u9152\u5e97\u201d\u7684\u6807\u51c6\uff0c\u643a\u7a0b\u575a\u79f0\uff1a\u90a3\u662f\u201c\u7528\u6237\u8bc4\u51fa\u6765\u7684\u201d\u3002\u738b\u5fd7\u5b89\u516c\u5f00\u8d28\u7591\u643a\u7a0b\u6536\u53d6\u9152\u5e97\u4f63\u91d1\uff0c\u641e\u7ade\u4ef7\u6392\u540d\uff0c\u8bef\u5bfc\u6d88\u8d39\u8005\u3002\u5176\u5b9e\uff0c\u5728\u6b63\u5e38\u7684\u4e94\u661f\u7ea7\u9152\u5e97\u91cc\u5b89\u63d2\u4e0a\u548c\u5e73\u53f0\u6709\u7740\u5229\u76ca\u5173\u7cfb\u7684\u201c\u8c6a\u534e\u9152\u5e97\u201d\uff0c\u76f8\u5f53\u4e8e\u6742\u8d27\u5e97\u8001\u677f\u5728\u5356\u201c\u516d\u4e2a\u6838\u6843\u201d\u65f6\uff0c\u6545\u610f\u63d2\u8fdb\u53bb\u4e24\u74f6\u201c\u5927\u4e2a\u6838\u6843\u201d\uff0c\u660e\u6446\u7740\u5c31\u662f\u8bef\u5bfc\u6d88\u8d39\u8005\uff0c\u4e0d\u987e\u8d77\u7801\u7684\u8bda\u4fe1\u7cbe\u795e\u3002\u4ece\u53bb\u5e7410\u6708\u97e9\u96ea\u70ae\u8f70\u643a\u7a0b\u642d\u552e ...
p265
stp266
Rp267
sg10
(lp268
g0
(g1
g2
(dp269
g13
Vhttp://bbs.voc.com.cn/topic-8313956-1-1.html
p270
sg15
g16
sg17
g18
stp271
Rp272
asg119
g61
((I2018
I4
I12
I1
I27
I45
I3
I102
I0
tp273
(dp274
tp275
Rp276
sg124
V\u5965\u5df4\u9a6c\u662f\u4ec0\u4e48\u9b3c
p277
sg43
V\u643a\u7a0b\u522b\u9ad8\u4f30\u4e86\u6d88\u8d39\u8005\u7684\u201c\u5bb9\u5fcd\u5ea6\u201d
p278
sg127
g265
sS'title_detail'
p279
g0
(g1
g2
(dp280
g29
Vhttp://bbs.voc.com.cn/rss.php?fid=76
p281
sg15
g31
sg21
Nsg32
g278
stp282
Rp283
sg37
g270
sg133
(lp284
g0
(g1
g2
(dp285
g136
g277
stp286
Rp287
asS'author_detail'
p288
g287
sg140
(lp289
g0
(g1
g2
(dp290
g143
V\u8fa3\u773c\u65f6\u8bc4
p291
sg145
Nsg146
Nstp292
Rp293
asg149
VThu, 12 Apr 2018 09:27:45 +0800
p294
stp295
Rp296
ag0
(g1
g2
(dp297
S'summary_detail'
p298
g0
(g1
g2
(dp299
g29
Vhttp://bbs.voc.com.cn/rss.php?fid=76
p300
sg15
g49
sg21
Nsg32
V\u8fd9\u51e0\u5e74\uff0c\u57ce\u5e02\u4e4b\u95f4\u7684\u201c\u62a2\u4eba\u5927\u6218\u201d\u785d\u70df\u5f25\u6f2b\uff0c\u533b\u7597\u9886\u57df\u4e5f\u5728\u4e0a\u6f14\u201c\u62a2\u4eba\u5927\u6218\u201d\uff0c\u59822016\u5e74\u6df1\u5733\u4e00\u4e9b\u533b\u9662\u7ed9\u533b\u751f\u5f00\u51fa\u7684\u5e74\u85aa\u9ad8\u8fbe200\u4e07\u5143\u3002\u5982\u4eca\uff0c\u8fd9\u4e48\u591a\u533b\u9662\u5728\u62db\u8058\u4f1a\u4e0a\u201c\u62a2\u4eba\u624d\u201d\uff0c\u518d\u6b21\u6298\u5c04\u51fa\u6211\u56fd\u533b\u7597\u9886\u57df\u603b\u4f53\u4eba\u624d\u4e0d\u8db3\uff0c\u7279\u522b\u662f\u7d27\u7f3a\u5987\u4ea7\u79d1\u3001\u513f\u79d1\u3001\u65b0\u751f\u513f\u79d1\u7b49\u65b9\u9762\u7684\u4eba\u624d\u2014\u2014\u8fd9\u4e9b\u5e94\u8be5\u4e0e\u4e8c\u5b69\u653f\u7b56\u5168\u9762\u5b9e\u65bd\u6709\u5173\u3002\u5b9e\u9645\u4e0a\uff0c\u533b\u9662\u201c\u62a2\u4eba\u624d\u201d\u5c31\u662f\u201c\u62a2\u5e02\u6f6e\u3001\u201c\u62a2\u60a3\u8005\u201d\u3002\u65e0\u8bba\u516c\u7acb\u533b\u9662\u8fd8\u662f\u6c11\u8425\u533b\u9662\uff0c\u53ea\u6709\u62e5\u6709\u4e00\u5b9a\u6570\u91cf\u7684\u533b\u5b66\u4eba\u624d\u5c24\u5176\u662f\u9ad8\u7ea7\u4eba\u624d\uff0c\u624d\u80fd\u5728\u7ade\u4e89\u4e2d\u83b7\u5f97\u66f4\u591a\u4f18\u52bf\uff0c\u5438\u5f15\u66f4\u591a\u60a3\u8005\u524d\u6765\u5c31\u533b\u3002\u6362\u8a00\u4e4b\uff0c\u533b\u9662\u201c\u62a2\u4eba\u5927\u6218\u201d\u662f\u533b\u7597\u5e02\u573a\u7ade\u4e89\u52a0\u5267\u7684\u6295\u5c04\uff0c\u800c\u7ade\u4e89\u5bf9 ...
p301
stp302
Rp303
sg10
(lp304
g0
(g1
g2
(dp305
g13
Vhttp://bbs.voc.com.cn/topic-8313954-1-1.html
p306
sg15
g16
sg17
g18
stp307
Rp308
asg119
g61
((I2018
I4
I12
I1
I27
I9
I3
I102
I0
tp309
(dp310
tp311
Rp312
sg124
V\u5187\u6709
p313
sg43
V\u533b\u9662\u201c\u62a2\u4eba\u5927\u6218\u201d\u91ca\u653e\u591a\u5c11\u4fe1\u606f
p314
sg127
g301
sS'title_detail'
p315
g0
(g1
g2
(dp316
g29
Vhttp://bbs.voc.com.cn/rss.php?fid=76
p317
sg15
g31
sg21
Nsg32
g314
stp318
Rp319
sg37
g306
sg133
(lp320
g0
(g1
g2
(dp321
g136
g313
stp322
Rp323
asS'author_detail'
p324
g323
sg140
(lp325
g0
(g1
g2
(dp326
g143
V\u8fa3\u773c\u65f6\u8bc4
p327
sg145
Nsg146
Nstp328
Rp329
asg149
VThu, 12 Apr 2018 09:27:09 +0800
p330
stp331
Rp332
ag0
(g1
g2
(dp333
S'summary_detail'
p334
g0
(g1
g2
(dp335
g29
Vhttp://bbs.voc.com.cn/rss.php?fid=76
p336
sg15
g49
sg21
Nsg32
V7\u5e74\u524d\uff0c\u4e00\u4e2a23\u5c81\u7684\u7537\u5bb6\u5ead\u6559\u5e08\u5f20\u6728\u6613\u8ddf11\u5c81\u7684\u5973\u5b66\u751f\u5f20\u5343\u5dfd\u201c\u8868\u767d\u201d\uff1a\u201c\u6211\u4f1a\u6c38\u8fdc\u8ddf\u4f60\u5728\u4e00\u8d77\uff0c\u4fdd\u62a4\u4f60\uff0c\u7b49\u7740\u4f60\u3002\u201d\u540e\u6765\uff0c\u4e24\u4eba\u6210\u7acb\u4e86\u7ec4\u5408\uff0c\u8fdb\u5165\u6f14\u827a\u5708\uff0c\u4ee5\u4e00\u9996\u300a\u52c7\u6562\u7231\u300b\u800c\u5927\u706b\u3002\u4e4b\u540e\uff0c\u4e24\u4e2a\u4eba\u4e00\u76f4\u62ff\u201c\u5e74\u9f84\u5dee\u201d\u5728\u6f14\u827a\u5708\u7092\u4f5c\u3002\u8fd9\u51e0\u5929\uff0c\u5973\u5b69\u521a\u6ee118\u5468\u5c81\uff0c\u4e24\u4eba\u5c31\u5728\u7f51\u7edc\u4e0a\u70ed\u70ed\u95f9\u95f9\u7092\u4f5c\u8981\u201c\u7ed3\u5a5a\u201d\uff0c\u751f\u751f\u5730\u4e0a\u4e86\u65b0\u6d6a\u5fae\u535a\u7684\u70ed\u641c\u3002\u5e08\u751f\u604b\u3001\u604b\u7ae5\u7656\u3001\u7578\u604b\u2026\u2026\u770b\u5230\u8fd9\u6837\u7684\u6545\u4e8b\uff0c\u6211\u8111\u5b50\u91cc\u4e00\u4e0b\u5b50\u8e66\u51fa\u5f88\u591a\u8d1f\u9762\u8868\u8ff0\u3002\u4f46\u662f\uff0c\u770b\u5230\u65b0\u5a92\u4f53\u5e73\u53f0\u4e0a\u4e00\u4e9b\u7684\u7c89\u4e1d\u6001\u5ea6\uff0c\u53c8\u5dee\u70b9\u628a\u65e9\u996d\u7ed9\u55b7\u51fa\u6765\uff1a\u201c\u6700\u597d\u7684\u7231\u60c5\u5c31\u662f\u7b49\u4f60\u957f\u5927\uff0c\u518d\u628a\u4f60\u5a36\u56de\u5bb6\u201d\u201c\u516d\u5e74\u76f8\u5b88\uff0c\u6700\u7ec8\u6c89\u6dc0\uff0c\u4e00\u88ad\u5a5a\u7eb1\uff0c ...
p337
stp338
Rp339
sg10
(lp340
g0
(g1
g2
(dp341
g13
Vhttp://bbs.voc.com.cn/topic-8312009-1-1.html
p342
sg15
g16
sg17
g18
stp343
Rp344
asg119
g61
((I2018
I4
I11
I2
I35
I35
I2
I101
I0
tp345
(dp346
tp347
Rp348
sg124
Vsouth\u5357
p349
sg43
V\u201c11\u5c81\u5973\u53cb\u517b\u6210\u201d\uff0c\u4e0d\u80fd\u518d\u8ba9\u8fd9\u6837\u7684\u7092\u4f5c\u62db\u6447\u8fc7\u5e02
p350
sg127
g337
sS'title_detail'
p351
g0
(g1
g2
(dp352
g29
Vhttp://bbs.voc.com.cn/rss.php?fid=76
p353
sg15
g31
sg21
Nsg32
g350
stp354
Rp355
sg37
g342
sg133
(lp356
g0
(g1
g2
(dp357
g136
g349
stp358
Rp359
asS'author_detail'
p360
g359
sg140
(lp361
g0
(g1
g2
(dp362
g143
V\u8fa3\u773c\u65f6\u8bc4
p363
sg145
Nsg146
Nstp364
Rp365
asg149
VWed, 11 Apr 2018 10:35:35 +0800
p366
stp367
Rp368
ag0
(g1
g2
(dp369
S'summary_detail'
p370
g0
(g1
g2
(dp371
g29
Vhttp://bbs.voc.com.cn/rss.php?fid=76
p372
sg15
g49
sg21
Nsg32
g229
stp373
Rp374
sg10
(lp375
g0
(g1
g2
(dp376
g13
Vhttp://bbs.voc.com.cn/topic-8308227-1-1.html
p377
sg15
g16
sg17
g18
stp378
Rp379
asg119
g61
((I2018
I4
I9
I3
I11
I19
I0
I99
I0
tp380
(dp381
tp382
Rp383
sg124
V\u67e5\u5fb7\u897f\u5c14
p384
sg43
V\u4e3a\u4f55\u8981\u5b66\u5916\u5730\u5931\u8d25\u7684\u201c\u57ce\u7ba1\u7ecf\u9a8c\u201d
p385
sg127
g229
sS'title_detail'
p386
g0
(g1
g2
(dp387
g29
Vhttp://bbs.voc.com.cn/rss.php?fid=76
p388
sg15
g31
sg21
Nsg32
g385
stp389
Rp390
sg37
g377
sg133
(lp391
g0
(g1
g2
(dp392
g136
g384
stp393
Rp394
asS'author_detail'
p395
g394
sg140
(lp396
g0
(g1
g2
(dp397
g143
V\u8fa3\u773c\u65f6\u8bc4
p398
sg145
Nsg146
Nstp399
Rp400
asg149
VMon, 09 Apr 2018 11:11:19 +0800
p401
stp402
Rp403
ag0
(g1
g2
(dp404
S'summary_detail'
p405
g0
(g1
g2
(dp406
g29
Vhttp://bbs.voc.com.cn/rss.php?fid=76
p407
sg15
g49
sg21
Nsg32
V\u6211\u4eec\u6240\u8981\u505a\u7684\uff0c\u4e0d\u662f\u786e\u7acb\u5973\u751f\u6291\u6216\u7537\u751f\u66f4\u5f3a\u7684\u7ed3\u8bba\uff0c\u800c\u662f\u7834\u9664\u5973\u751f\u6291\u6216\u7537\u751f\u4e0d\u9002\u5408\u505a\u4ec0\u4e48\u7684\u9648\u8150\u89c2\u70b9\u3002\u4ece\u5c0f\u5230\u5927\uff0c\u8bb8\u591a\u4eba\u90fd\u4ece\u957f\u8f88\u4eec\u53e3\u4e2d\u542c\u5230\u8fc7\u8fd9\u6837\u4e00\u79cd\u8bf4\u6cd5\uff1a\u5728\u5b66\u4e60\u65b9\u9762\uff0c\u7537\u751f\u5c0f\u65f6\u5019\u53ef\u80fd\u4e0d\u5982\u5973\u751f\uff0c\u4f46\u5230\u4e86\u5927\u5b66\u4fbf\u4f1a\u201c\u540e\u6765\u5c45\u4e0a\u201d\uff0c\u4ee5\u6b64\u8bba\u8bc1\u201c\u5973\u751f\u4e0d\u5982\u7537\u751f\u201d\u3002\u7136\u800c\uff0c\u8fd1\u65e5\u6709\u7edf\u8ba1\u4e8b\u5b9e\u8bc1\u660e\uff0c\u8fd9\u4e2a\u6d89\u5acc\u6b67\u89c6\u5973\u6027\u7684\u8bf4\u6cd5\u7edd\u4e0d\u6210\u7acb\u3002\u636e\u5357\u5f00\u5927\u5b66\u7edf\u8ba1\uff0c\u8be5\u6821\u672c\u79d1\u751f\u7537\u5973\u751f\u6bd4\u4f8b\u4e3a1\u22361.08\uff0c\u83b7\u5f97\u5956\u5b66\u91d1\u6bd4\u4f8b\u5374\u8fbe\u5230\u4e861\u22361.57\uff0c\u672c\u79d1\u5973\u751f\u83b7\u5956\u6bd4\u4f8b\u6bd4\u7537\u751f\u9ad8\u51fa50%\u3002\u8fd9\u4e00\u7edf\u8ba1\u7ed3\u8bba\u6216\u8bb8\u4e0d\u80fd\u63a8\u5e7f\u5f97\u592a\u8fdc\uff0c\u4f46\u8db3\u4ee5\u8bf4\u660e\uff0c\u5728\u9ad8\u7b49\u6559\u80b2\u9636\u6bb5\uff0c\u5973\u5927\u5b66\u751f\u7edd\u4e0d\u50cf\u4e00\u4e9b\u4eba\u60f3\u7684\u90a3\u6837\u201c\u4e0d\u5982\u7537\u751f ...
p408
stp409
Rp410
sg10
(lp411
g0
(g1
g2
(dp412
g13
Vhttp://bbs.voc.com.cn/topic-8312467-1-1.html
p413
sg15
g16
sg17
g18
stp414
Rp415
asg119
g61
((I2018
I4
I11
I6
I44
I27
I2
I101
I0
tp416
(dp417
tp418
Rp419
sg124
Vynoffcn
p420
sg43
V\u5728\u516c\u5e73\u7684\u73af\u5883\u4e2d \u6027\u522b\u4e4b\u4e89\u81ea\u4f1a\u6d88\u89e3
p421
sg127
g408
sS'title_detail'
p422
g0
(g1
g2
(dp423
g29
Vhttp://bbs.voc.com.cn/rss.php?fid=76
p424
sg15
g31
sg21
Nsg32
g421
stp425
Rp426
sg37
g413
sg133
(lp427
g0
(g1
g2
(dp428
g136
g420
stp429
Rp430
asS'author_detail'
p431
g430
sg140
(lp432
g0
(g1
g2
(dp433
g143
V\u8fa3\u773c\u65f6\u8bc4
p434
sg145
Nsg146
Nstp435
Rp436
asg149
VWed, 11 Apr 2018 14:44:27 +0800
p437
stp438
Rp439
ag0
(g1
g2
(dp440
S'summary_detail'
p441
g0
(g1
g2
(dp442
g29
Vhttp://bbs.voc.com.cn/rss.php?fid=76
p443
sg15
g49
sg21
Nsg32
V\u8fde\u65e5\u6765\uff0c\u4e00\u6bb5\u5973\u5b50\u9ad8\u94c1\u4e0a\u65e5\u8bed\u6012\u603c\u4e58\u8b66\u9a82\u4e58\u5ba2\u76844\u5206\u949f\u89c6\u9891\u5728\u7f51\u4e0a\u6380\u8d77\u8f69\u7136\u5927\u6ce2\uff0c\u8206\u8bba\u7684\u5229\u7bad\u77ac\u95f4\u5c04\u5411\u4e86\u8be5\u5973\u5b50\u3002\u4f46\u636e\u300a\u534a\u5c9b\u6668\u62a5\u300b4\u670810\u62a5\u9053\u79f0\uff0c\u7ecf\u8bb0\u8005\u8c03\u67e5\u53d1\u73b0\uff0c\u8be5\u4e58\u5ba2\u662f\u7cbe\u795e\u4e8c\u7ea7\u6b8b\u75be\uff0c\u9488\u5bf9\u8fd9\u4e00\u89c6\u9891\uff0c\u5927\u8fde\u5e02\u7cbe\u795e\u6b8b\u75be\u4eba\u53ca\u4eb2\u53cb\u534f\u4f1a\u4e3b\u5e2d\u5f20\u5ada\u4e5f\u547c\u5401\u516c\u4f17\u7406\u89e3\u3002\u4e92\u8054\u7f51\u65f6\u4ee3\uff0c\u535a\u4eba\u773c\u7403\u7684\u65b0\u95fb\u6b64\u8d77\u5f7c\u4f0f\uff0c\u4ee5\u6b64\u4e3a\u4f8b\uff0c\u5176\u5174\u8d77\u4e5f\u52c3\u7109\uff0c\u5176\u6d88\u5f2d\u4e5f\u5ffd\u7109\u3002\u7b49\u5230\u771f\u76f8\u6765\u4e34\uff0c\u5374\u9c9c\u6709\u4eba\u5173\u6ce8\u3002\u4f46\u7b14\u8005\u6ce8\u610f\u5230\uff0c\u5f20\u5ada\u4e3b\u5e2d\u5728\u547c\u5401\u516c\u4f17\u7684\u540c\u65f6\uff0c\u8868\u8fbe\u4e86\u5bf9\u9ad8\u94c1\u4e58\u52a1\u4eba\u5458\u7406\u6027\u548c\u8010\u5fc3\u7684\u5904\u7f6e\u7684\u8d5e\u626c\u3002\u786e\u5b9e\uff0c\u57284\u4e2a\u591a\u5c0f\u65f6\u7684\u65f6\u95f4\u91cc\uff0c\u4ed6\u4eec\u4e00\u76f4\u662f\u4ee5\u966a\u4f34\u8005\u3001\u534f\u8c03\u8005\u7684\u8eab\u4efd\u5728\u5c3d\u53ef\u80fd\u5730\u7ef4\u6301\u79e9\u5e8f\uff0c ...
p444
stp445
Rp446
sg10
(lp447
g0
(g1
g2
(dp448
g13
Vhttp://bbs.voc.com.cn/topic-8312463-1-1.html
p449
sg15
g16
sg17
g18
stp450
Rp451
asg119
g61
((I2018
I4
I11
I6
I42
I19
I2
I101
I0
tp452
(dp453
tp454
Rp455
sg124
Vynoffcn
p456
sg43
V\u7406\u6027\u548c\u8010\u5fc3\u662f\u5904\u7f6e\u516c\u5171\u4e8b\u4ef6\u7684\u6da6\u6ed1\u5242
p457
sg127
g444
sS'title_detail'
p458
g0
(g1
g2
(dp459
g29
Vhttp://bbs.voc.com.cn/rss.php?fid=76
p460
sg15
g31
sg21
Nsg32
g457
stp461
Rp462
sg37
g449
sg133
(lp463
g0
(g1
g2
(dp464
g136
g456
stp465
Rp466
asS'author_detail'
p467
g466
sg140
(lp468
g0
(g1
g2
(dp469
g143
V\u8fa3\u773c\u65f6\u8bc4
p470
sg145
Nsg146
Nstp471
Rp472
asg149
VWed, 11 Apr 2018 14:42:19 +0800
p473
stp474
Rp475
ag0
(g1
g2
(dp476
S'summary_detail'
p477
g0
(g1
g2
(dp478
g29
Vhttp://bbs.voc.com.cn/rss.php?fid=76
p479
sg15
g49
sg21
Nsg32
V\u5927\u5b66\u751f\u6751\u5b98\u5236\u5ea6\u662f\u6211\u56fd\u5411\u519c\u6751\u8f93\u8840\u7684\u91cd\u8981\u9014\u5f84\u3002\u534a\u6708\u8c08\u8bb0\u8005\u5728\u6cb3\u5317\u3001\u5c71\u4e1c\u3001\u9655\u897f\u7b49\u5730\u8c03\u7814\u53d1\u73b0\uff0c\u5404\u5730\u56f4\u7ed5\u201c\u4e0b\u5f97\u53bb\u3001\u5f85\u5f97\u6ce8\u5e72\u5f97\u597d\u3001\u6d41\u5f97\u52a8\u201d\uff0c\u8fdb\u884c\u4e86\u6709\u76ca\u63a2\u7d22\uff0c\u63a8\u52a8\u4f18\u79c0\u5927\u5b66\u751f\u79ef\u6781\u6295\u8eab\u5230\u519c\u4e1a\u548c\u519c\u6751\u73b0\u4ee3\u5316\u5efa\u8bbe\u4e2d\u53bb\u3002\u4f46\u4e00\u4e9b\u5927\u5b66\u751f\u6751\u5b98\u4e5f\u9762\u4e34\u201c\u4e0b\u4e0d\u6765\uff0c\u4e0a\u4e0d\u53bb\u201d\u7684\u56f0\u60d1\uff0c\u5982\u4f55\u8ba9\u4ed6\u4eec\u5728\u519c\u6751\u53d1\u6325\u66f4\u5927\u4f5c\u7528\uff0c\u4ecd\u7136\u662f\u4e00\u9053\u96be\u9898\u3002(4\u67088\u65e5\u534a\u6708\u8c08)\u81ea\u515a\u7684\u5341\u4e03\u5c4a\u4e09\u4e2d\u5168\u4f1a\u63d0\u51fa\u201c\u5f15\u5bfc\u9ad8\u6821\u6bd5\u4e1a\u751f\u5230\u6751\u4efb\u804c\uff0c\u5b9e\u65bd\u4e00\u6751\u4e00\u540d\u5927\u5b66\u751f\u8ba1\u5212\u201d\u7684\u51b3\u7b56\u4ee5\u6765\uff0c\u8fd1\u5341\u5e74\u7684\u65f6\u95f4\uff0c\u8d8a\u6765\u8d8a\u591a\u7684\u5927\u5b66\u6bd5\u4e1a\u751f\u4e0d\u518d\u5411\u5f80\u90fd\u5e02\uff0c\u800c\u662f\u6bc5\u7136\u4e0b\u4e61\uff0c\u5c06\u68a6\u60f3\u7b51\u5728\u4e61\u6751\uff0c\u7528\u9752\u6625\u7684\u6fc0\u60c5\u4e0e\u6751\u6c11\u6253\u6210\u4e00\u7247\u3002\u7136\u800c ...
p480
stp481
Rp482
sg10
(lp483
g0
(g1
g2
(dp484
g13
Vhttp://bbs.voc.com.cn/topic-8312460-1-1.html
p485
sg15
g16
sg17
g18
stp486
Rp487
asg119
g61
((I2018
I4
I11
I6
I41
I23
I2
I101
I0
tp488
(dp489
tp490
Rp491
sg124
Vynoffcn
p492
sg43
V\u7559\u4f4f\u5927\u5b66\u751f\u6751\u5b98\u987b\u5404\u65b9\u9762\u52aa\u529b
p493
sg127
g480
sS'title_detail'
p494
g0
(g1
g2
(dp495
g29
Vhttp://bbs.voc.com.cn/rss.php?fid=76
p496
sg15
g31
sg21
Nsg32
g493
stp497
Rp498
sg37
g485
sg133
(lp499
g0
(g1
g2
(dp500
g136
g492
stp501
Rp502
asS'author_detail'
p503
g502
sg140
(lp504
g0
(g1
g2
(dp505
g143
V\u8fa3\u773c\u65f6\u8bc4
p506
sg145
Nsg146
Nstp507
Rp508
asg149
VWed, 11 Apr 2018 14:41:23 +0800
p509
stp510
Rp511
ag0
(g1
g2
(dp512
S'summary_detail'
p513
g0
(g1
g2
(dp514
g29
Vhttp://bbs.voc.com.cn/rss.php?fid=76
p515
sg15
g49
sg21
Nsg32
V\u957f\u6c99\u5c1a\u54c1\u5b85\u914d\u5bcc\u5174\u5e97\u5f00\u4e1a\u65f6\uff0c\u5e74\u521d\u5728\u90a3\u5b9a\u5236\u4e86\u51e0\u5957\u6240\u8c13\u7684\u5b9a\u5236\u5bb6\u5177\u3002\u5f53\u65f6\u51b2\u7740\u957f\u6c99\u5c1a\u54c1\u5b85\u914d\u7684\u540d\u6c14\u60f3\u7740\u628a\u5bb6\u91cc\u91cd\u4fee\u6539\u9020\u4e00\u4e0b\u589e\u52a0\u6536\u7eb3\u7a7a\u95f4\uff0c\u53ef\u7ed9\u81ea\u5df1\u5e26\u6765\u4e86\u4e00\u5806\u7684\u70e6\u607c\u30021\u3001\u6536\u8d39\u4e0d\u660e\uff0c\u4ef7\u683c\u6ca1\u7b97\u51c6\u5c31\u50ac\u7740\u4ea4\u94b1\u3002\u7b97\u51c6\u540e\u4e0d\u9000\u5dee\u4ef7\u3002\u5f53\u65f6\u505a\u4e86\u8bbe\u8ba1\u540e\uff0c\u957f\u6c99\u5c1a\u54c1\u5b85\u914d\u8001\u603b\u6b63\u5728\u5e97\u5185\uff0c\u6309\u7167\u76f4\u63a5\u8ddf\u8001\u603b\u8c08\u4ef7\uff0c\u7ed9\u6211\u5c11\u4e86800\u5757\u3002\u5f53\u65f6\u4ed8\u94b1\u4e0b\u5355\uff0c\u5230\u4e86\u771f\u6b63\u6838\u7b97\u7684\u65f6\u5019\u5374\u5c11\u8865\u591a\u4e86\u4e0d\u9000\u6b3e\u3002\u4e2d\u95f4\u8fd8\u6709200\u591a\u7684\u5dee\u4ef7\u4e0d\u613f\u610f\u9000\u4e86\uff0c\u8bbe\u8ba1\u5e08\u7ed9\u7684\u65b9\u6848\u662f\uff0c\u591a\u52a0\u70b9\u6728\u677f\u6216\u8005\u591a\u505a\u4e2a\u67dc\u5b50\u3002\u90a3\u4e48\u6211\u8bf7\u95ee\uff0c\u662f\u4e0d\u662f\u6211\u4e70\u623f\u5b50\u4ed8\u6b3e\u540e\uff0c\u4ea4\u623f\u5c11\u4e86\u51e0\u4e2a\u5e73\u65b9\uff0c\u6211\u4e5f\u8981\u628a\u9694\u58c1\u90a3\u4e00\u5957\u4e70\u4e0b\u6765\uff1f2\u3001\u5c3a\u5bf8\u91cf\u7684\u4e0d\u51c6\uff0c ...
p516
stp517
Rp518
sg10
(lp519
g0
(g1
g2
(dp520
g13
Vhttp://bbs.voc.com.cn/topic-8306913-1-1.html
p521
sg15
g16
sg17
g18
stp522
Rp523
asg119
g61
((I2018
I4
I8
I4
I3
I7
I6
I98
I0
tp524
(dp525
tp526
Rp527
sg124
V\u5c0f\u8c5a
p528
sg43
V\u957f\u6c99\u5c1a\u54c1\u5b85\u914d\u5b9a\u5236\u5bb6\u5177\u5c3a\u5bf8\u91cf\u9519\u5374\u8981\u987e\u5ba2\u81ea\u5df1\u8d1f\u8d23[\u539f\u521b]
p529
sg127
g516
sS'title_detail'
p530
g0
(g1
g2
(dp531
g29
Vhttp://bbs.voc.com.cn/rss.php?fid=76
p532
sg15
g31
sg21
Nsg32
g529
stp533
Rp534
sg37
g521
sg133
(lp535
g0
(g1
g2
(dp536
g136
g528
stp537
Rp538
asS'author_detail'
p539
g538
sg140
(lp540
g0
(g1
g2
(dp541
g143
V\u8fa3\u773c\u65f6\u8bc4
p542
sg145
Nsg146
Nstp543
Rp544
asg149
VSun, 08 Apr 2018 12:03:07 +0800
p545
stp546
Rp547
ag0
(g1
g2
(dp548
S'summary_detail'
p549
g0
(g1
g2
(dp550
g29
Vhttp://bbs.voc.com.cn/rss.php?fid=76
p551
sg15
g49
sg21
Nsg32
V\u534e\u76db\u987f\u20144\u670810\u65e5\u661f\u671f\u4e8c\uff0c\u4e2d\u56fd\u56fd\u5bb6\u4e3b\u5e2d\u4e60\u8fd1\u5e73\u5728\u535a\u9ccc\u8bba\u575b\u5f00\u5e55\u5f0f\u4e0a\u8868\u793a\uff0c\u4e2d\u56fd\u5c06\u5c3d\u5feb\u91c7\u53d6\u91cd\u5927\u63aa\u65bd\uff0c\u6269\u5927\u6539\u9769\u5f00\u653e\u3002\u6709\u5206\u6790\u6307\u51fa\uff0c\u8fd9\u662f\u4e60\u8fd1\u5e73\u4e3a\u7f13\u89e3\u7f8e\u4e2d\u8d38\u6613\u7d27\u5f20\u5173\u7cfb\u91ca\u653e\u51fa\u7684\u5584\u610f\u4fe1\u53f7\u3002\u7f8e\u56fd\u603b\u7edf\u5ddd\u666e\u540c\u4e00\u5929\u53d1\u63a8\u5bf9\u4e60\u8fd1\u5e73\u7684\u8a00\u8bcd\u8868\u793a\u611f\u8c22\u3002\u6709\u5206\u6790\u4eba\u58eb\u8ba4\u4e3a\uff0c\u5ddd\u666e\u7684\u8fd9\u756a\u8868\u793a\u663e\u793a\uff0c\u7f8e\u56fd\u53ef\u80fd\u4f1a\u5728\u5173\u7a0e\u95ee\u9898\u4e0a\u201c\u56de\u64a4\u201d\u3002\u4e60\u8fd1\u5e73\u5728\u8bb2\u8bdd\u4e2d\u8bf4\uff0c\u4e2d\u56fd\u5c06\u5927\u5e45\u5ea6\u653e\u5bbd\u5e02\u573a\u51c6\u5165\uff0c\u7279\u522b\u662f\u91d1\u878d\u4e1a\uff08\u94f6\u884c\u3001\u8bc1\u5238\u3001\u4fdd\u9669\u884c\u4e1a\uff09\u7684\u5916\u8d44\u80a1\u6bd4\u9650\u5236\u3002\u9664\u6b64\u4e4b\u5916\uff0c\u4e2d\u56fd\u8fd8\u5c06\u52a0\u5f3a\u77e5\u8bc6\u4ea7\u6743\u4fdd\u62a4\u4ee5\u53ca\u76f8\u5f53\u5e45\u5ea6\u5730\u964d\u4f4e\u6c7d\u8f66\u8fdb\u53e3\u5173\u7a0e\u7b49\u3002\u300a\u4eba\u6c11\u65e5\u62a5\u300b\u5728\u4e60\u8fd1\u5e73\u4e3b\u5e2d\u8bb2\u8bdd\u4e00\u5c0f\u65f6\u540e\u53d1\u8868\u8bc4\u8bba\u8bf4\uff0c\u4e60\u8fd1 ...
p552
stp553
Rp554
sg10
(lp555
g0
(g1
g2
(dp556
g13
Vhttp://bbs.voc.com.cn/topic-8311737-1-1.html
p557
sg15
g16
sg17
g18
stp558
Rp559
asg119
g61
((I2018
I4
I11
I0
I59
I59
I2
I101
I0
tp560
(dp561
tp562
Rp563
sg124
Vheping369
p564
sg43
V\u7f8e\u5a92\uff1a\u4e60\u8fd1\u5e73\u535a\u9ccc\u8bb2\u8bdd\u5584\u610f\u826f\u591a \u5ddd\u666e\u8d38\u6613\u56de\u64a4\u6070\u9022\u5176\u65f6
p565
sg127
g552
sS'title_detail'
p566
g0
(g1
g2
(dp567
g29
Vhttp://bbs.voc.com.cn/rss.php?fid=76
p568
sg15
g31
sg21
Nsg32
g565
stp569
Rp570
sg37
g557
sg133
(lp571
g0
(g1
g2
(dp572
g136
g564
stp573
Rp574
asS'author_detail'
p575
g574
sg140
(lp576
g0
(g1
g2
(dp577
g143
V\u8fa3\u773c\u65f6\u8bc4
p578
sg145
Nsg146
Nstp579
Rp580
asg149
VWed, 11 Apr 2018 08:59:59 +0800
p581
stp582
Rp583
ag0
(g1
g2
(dp584
S'summary_detail'
p585
g0
(g1
g2
(dp586
g29
Vhttp://bbs.voc.com.cn/rss.php?fid=76
p587
sg15
g49
sg21
Nsg32
V\u57282016\u5e74\u4e4b\u524d\uff0c\u5357\u4eac\u51fa\u79df\u8f66\u7684\u9000\u79df\u7387\u5fae\u4e4e\u5176\u5fae\u3002\u7136\u800c\uff0c2017\u5e74\u521d\uff0c\u7f8e\u56e2\u6253\u8f66\u8fdb\u5165\u5357\u4eac\u5e02\u573a\u540e\uff0c\u4e0e\u6ef4\u6ef4\u4e4b\u95f4\u53ae\u6740\u5f97\u975e\u5e38\u80f6\u7740\uff0c\u5bf9\u53f8\u673a\u7684\u8865\u8d34\u4e5f\u5c42\u51fa\u4e0d\u7a77\u3002\u5728\u8fd9\u4e00\u5e74\u4e2d\uff0c\u5357\u4eac\u5e02\u4f20\u7edf\u51fa\u79df\u8f66\u7684\u65e5\u5747\u8425\u8fd0\u5355\u6570\u8f83\u4e4b\u4ee5\u5f80\u51cf\u5c11\u4e86\u4e00\u534a\uff0c\u53f8\u673a\u9000\u8f66\u79bb\u804c\u7387\u4e5f\u5927\u5e45\u4e0a\u5347\uff0c\u52302017\u5e74\u5e95\uff0c\u9000\u79df\u505c\u8fd0\u7684\u8f66\u8f86\u5df2\u8fbe2000\u4f59\u8f86\uff0c\u52302018\u5e74\u4e00\u5b63\u5ea6\uff0c\u53c8\u67091000\u591a\u8f86\u505c\u8fd0\u3002
p588
stp589
Rp590
sg10
(lp591
g0
(g1
g2
(dp592
g13
Vhttp://bbs.voc.com.cn/topic-8306880-1-1.html
p593
sg15
g16
sg17
g18
stp594
Rp595
asg119
g61
((I2018
I4
I8
I3
I34
I43
I6
I98
I0
tp596
(dp597
tp598
Rp599
sg124
V\u5999\u545c\u5999\u545c
p600
sg43
V\u51fa\u79df\u8f66\u53f8\u673a\u96c6\u4f53\u8f9e\u804c\uff0c\u4e0d\u80fd\u53ea\u602a\u7f51\u7ea6\u8f66
p601
sg127
g588
sS'title_detail'
p602
g0
(g1
g2
(dp603
g29
Vhttp://bbs.voc.com.cn/rss.php?fid=76
p604
sg15
g31
sg21
Nsg32
g601
stp605
Rp606
sg37
g593
sg133
(lp607
g0
(g1
g2
(dp608
g136
g600
stp609
Rp610
asS'author_detail'
p611
g610
sg140
(lp612
g0
(g1
g2
(dp613
g143
V\u8fa3\u773c\u65f6\u8bc4
p614
sg145
Nsg146
Nstp615
Rp616
asg149
VSun, 08 Apr 2018 11:34:43 +0800
p617
stp618
Rp619
ag0
(g1
g2
(dp620
S'summary_detail'
p621
g0
(g1
g2
(dp622
g29
Vhttp://bbs.voc.com.cn/rss.php?fid=76
p623
sg15
g49
sg21
Nsg32
V\u6c88\u9633\u5e02\u94c1\u897f\u533a\u4e00\u5bb6\u5916\u8d38\u516c\u53f8\u9500\u552e\u7ecf\u7406\u848b\u6850\u8fd1\u65e5\u5e26\u7740\u624b\u673a\u51fa\u53bb\u529e\u4e1a\u52a1\uff0c\u4e2d\u5348\u4f11\u606f\u65f6\u95f4\uff0c\u79fb\u52a8\u8003\u52e4APP\u4e0a\u901a\u8fc7\u624b\u673a\u5b9a\u4f4d\u5f97\u77e5\u5979\u66fe\u51fa\u73b0\u5728\u4e00\u4e2a\u4e0e\u529e\u4e1a\u52a1\u65e0\u5173\u7684\u5730\u65b9\uff0c\u4e3a\u6b64\uff0c\u5979\u88ab\u516c\u53f8\u901a\u62a5\u6279\u8bc4\u5e76\u7f5a\u6b3e200\u5143\u3002\u848b\u6850\u8ba4\u4e3a\uff0c\u624b\u673a\u5b9a\u4f4d\u8003\u52e4\u7ed9\u5458\u5de5\u5957\u4e0a\u4e86\u4e00\u9053\u201c\u7d27\u7b8d\u201d\uff0c\u597d\u50cf\u968f\u65f6\u968f\u5730\u90fd\u6709\u4e00\u53cc\u773c\u775b\u76ef\u7740\u4f60\uff0c\u592a\u4e0d\u81ea\u5728\u4e86\u3002\u636e\u62a5\u9053\uff0c\u5f53\u524d\u5f88\u591a\u4f01\u4e1a\u4f7f\u7528\u624b\u673a\u5b9a\u4f4d\u7684\u7ba1\u7406\u65b9\u5f0f\u8003\u52e4\u5458\u5de5\uff0c\u8ba4\u4e3a\u80fd\u591f\u6fc0\u53d1\u5458\u5de5\u7684\u5de5\u4f5c\u6548\u7387\uff0c\u7ed9\u5458\u5de5\u201c\u4e0a\u53d1\u6761\u201d\u3002\u5c06\u79d1\u6280\u8fdb\u6b65\u5e94\u7528\u5230\u5458\u5de5\u7ba1\u7406\u65b9\u9762\uff0c\u672c\u8eab\u5e76\u6ca1\u6709\u592a\u5927\u95ee\u9898\uff0c\u4e5f\u662f\u7528\u4eba\u5355\u4f4d\u884c\u4f7f\u81ea\u4e3b\u6743\u7684\u4f53\u73b0\uff0c\u4f46\u624b\u673a\u5b9a\u4f4d\u8003\u52e4\u4e5f\u4e0d\u80fd\u6ee5\u7528\uff0c\u66f4\u4e0d\u80fd\u4ee5\u8003\u52e4\u4e4b\u540d\u4fb5\u72af\u52b3\u52a8\u8005\u7684 ...
p624
stp625
Rp626
sg10
(lp627
g0
(g1
g2
(dp628
g13
Vhttp://bbs.voc.com.cn/topic-8311888-1-1.html
p629
sg15
g16
sg17
g18
stp630
Rp631
asg119
g61
((I2018
I4
I11
I1
I59
I33
I2
I101
I0
tp632
(dp633
tp634
Rp635
sg124
V\u949f\u5b87\u8f69
p636
sg43
V\u65e0\u89c6\u5458\u5de5\u6743\u76ca\u7684\u201c\u5b9a\u4f4d\u8003\u52e4\u201d\u884c\u4e4b\u4e0d\u8fdc
p637
sg127
g624
sS'title_detail'
p638
g0
(g1
g2
(dp639
g29
Vhttp://bbs.voc.com.cn/rss.php?fid=76
p640
sg15
g31
sg21
Nsg32
g637
stp641
Rp642
sg37
g629
sg133
(lp643
g0
(g1
g2
(dp644
g136
g636
stp645
Rp646
asS'author_detail'
p647
g646
sg140
(lp648
g0
(g1
g2
(dp649
g143
V\u8fa3\u773c\u65f6\u8bc4
p650
sg145
Nsg146
Nstp651
Rp652
asg149
VWed, 11 Apr 2018 09:59:33 +0800
p653
stp654
Rp655
ag0
(g1
g2
(dp656
S'summary_detail'
p657
g0
(g1
g2
(dp658
g29
Vhttp://bbs.voc.com.cn/rss.php?fid=76
p659
sg15
g49
sg21
Nsg32
V\u8fd8\u8bb0\u5f97\u5c71\u4e1c\u4e34\u6c82\u7f51\u7edc\u6210\u763e\u6212\u6cbb\u4e2d\u5fc3\u7528\u201c\u7535\u51fb\u7597\u6cd5\u201d\u6212\u201c\u7f51\u763e\u201d\u5417\uff1f\u8fd8\u8bb0\u5f97\u6c5f\u897f\u8c6b\u7ae0\u4e66\u9662\u4ee5\u201c\u97ad\u5b50\u62bd\u3001\u5173\u5c0f\u9ed1\u5c4b\u201d\u60e9\u7f5a\u5b66\u751f\u5417\uff1f\u8fd9\u4e9b\u6253\u7740\u201c\u6212\u7f51\u763e\u201d\u7b49\u65d7\u53f7\u7684\u7279\u8bad\u673a\u6784\uff0c\u9891\u9891\u5f15\u53d1\u8206\u8bba\u53e3\u8bdb\u7b14\u4f10\uff0c\u5373\u4fbf\u5982\u6b64\uff0c\u8650\u5f85\u513f\u7ae5\u7684\u75db\u5fc3\u4e8b\u8fd8\u662f\u4e00\u518d\u4e0a\u6f14\u3002\u65b0\u957f\u5f81\uff0c\u8fd9\u6240\u4f4d\u4e8e\u6b66\u6c49\u5e02\u6c5f\u590f\u533a\u4e94\u91cc\u754c\u9526\u7ee3\u5c71\u5e84\u5185\u7684\u9752\u5c11\u5e74\u6210\u957f\u5b66\u6821\uff0c\u81ea2009\u5e74\u6765\uff0c\u63a5\u7eb3\u7684\u5b66\u5458\u6700\u5c0f10\u5c81\u5de6\u53f3\u3001\u6700\u5927\u768428\u5c81\u3002\u591a\u540d\u53d7\u8bbf\u5b66\u5458\u5728\u91c7\u8bbf\u4e2d\u8868\u793a\uff1a\u4e0e\u4f53\u7f5a\u540c\u65f6\u5b58\u5728\u7684\u662f\u601d\u60f3\u63a7\u5236\uff0c\u544a\u5bc6\u3001\u4e3e\u62a5\u4e4b\u98ce\u76db\u884c\u3002\uff08\u4e0a\u89c2\u65b0\u95fb4\u67089\u65e5\uff09\u6709\u5173\u5404\u5f0f\u7279\u8bad\u673a\u6784\u7684\u5185\u5e55\u4e0e\u771f\u76f8\uff0c\u8fd9\u4e9b\u5e74\u5a92\u4f53\u62a5\u9053\u62ab\u9732\u7684\u4e0d\u7b97\u5c11\u3002\u65e0\u8bba\u662f\u6253\u7740\u6212\u7f51\u763e\u7684\u65d7\u53f7\uff0c\u8fd8\u662f ...
p660
stp661
Rp662
sg10
(lp663
g0
(g1
g2
(dp664
g13
Vhttp://bbs.voc.com.cn/topic-8311833-1-1.html
p665
sg15
g16
sg17
g18
stp666
Rp667
asg119
g61
((I2018
I4
I11
I1
I44
I4
I2
I101
I0
tp668
(dp669
tp670
Rp671
sg124
V\u5c24\u5f25\u5c14
p672
sg43
V\u66b4\u529b\u7279\u8bad\u673a\u6784\uff1a\u66dd\u5149\u8d8a\u591a\uff0c\u751f\u610f\u8d8a\u597d\uff1f
p673
sg127
g660
sS'title_detail'
p674
g0
(g1
g2
(dp675
g29
Vhttp://bbs.voc.com.cn/rss.php?fid=76
p676
sg15
g31
sg21
Nsg32
g673
stp677
Rp678
sg37
g665
sg133
(lp679
g0
(g1
g2
(dp680
g136
g672
stp681
Rp682
asS'author_detail'
p683
g682
sg140
(lp684
g0
(g1
g2
(dp685
g143
V\u8fa3\u773c\u65f6\u8bc4
p686
sg145
Nsg146
Nstp687
Rp688
asg149
VWed, 11 Apr 2018 09:44:04 +0800
p689
stp690
Rp691
ag0
(g1
g2
(dp692
S'summary_detail'
p693
g0
(g1
g2
(dp694
g29
Vhttp://bbs.voc.com.cn/rss.php?fid=76
p695
sg15
g49
sg21
Nsg32
V\u8fd9\u4e2a\u6e05\u660e\uff0c\u6211\u662f\u5728\u533b\u9662\u8fc7\u7684\u3002\u6211\u8001\u5a46\u88ab\u67d0\u5feb\u9012\u516c\u53f8\u7684\u4e09\u8f6e\u8f66\u649e\u4e86\u3002\u624b\u638c\u9aa8\u6298\u4e09\u5904\uff0c\u6709\u4e00\u5904\u4e0b\u4e86\u94a2\u677f\uff0c\u4e00\u5e74\u540e\u624d\u80fd\u53d6\u51fa\u3002\u63a5\u7740\uff0c\u4e0d\u5149\u751f\u6d3b\u88ab\u6253\u4e71\u4e86\uff0c\u8fd8\u6709\u4e00\u5806\u96be\u9898\u8981\u9762\u5bf9\u3002\u4e3b\u5200\u5927\u592b\u8bf4\uff0c\u6709\u4e2a\u5317\u4eac\u8001\u592a\u592a\uff0c\u88ab\u649e\u4e86\uff0c\u4f4f\u9662\u6ca1\u51e0\u5929\uff0c\u53bb\u4e16\u4e86\uff0c\u6ca1\u6709\u4eba\u627f\u62c5\u8d23\u4efb\u3002\u4ed6\u7684\u7ed3\u8bba\u662f\uff0c\u89c1\u4e86\u5feb\u9012\u8f66\uff0c\u8d76\u7d27\u8eb2\u3002\u4e00\u75c5\u53cb\u8bf4\uff0c\u521a\u51fa\u9662\u7684\u90a3\u4e2a\uff0c\u4e5f\u662f\u88ab\u5feb\u9012\u8f66\u649e\u7684\uff0c\u82b1\u4e8614\u4e07\uff0c\u5feb\u9012\u54e5\u8d54\u4e0d\u8d77\uff0c\u63a5\u7740\u5f97\u6253\u5b98\u53f8\u3002\u4ea4\u8b66\u8ba4\u5b9a\uff0c\u5feb\u9012\u8f66\u9006\u884c\uff0c\u8d1f\u5168\u8d23\u3002\u53ef\u662f\uff0c\u5feb\u9012\u8f66\u6ca1\u4e0a\u4fdd\u9669\u3002\u5feb\u9012\u54e5\u8d54\u4e0d\u8d77\uff0c\u53ea\u80fd\u4ea4\u4e00\u90e8\u5206\u4f4f\u9662\u62bc\u91d1\u3002\u4ea4\u8b66\u5efa\u8bae\u4fdd\u5b58\u597d\u7968\u636e\uff0c\u4ee5\u540e\u6253\u5b98\u53f8\u7528\u3002\u5feb\u9012\u54e5\u5219\u56e0\u4e3a\u8f66\u6ca1\u8981\u56de\u6765\uff0c\u6ca1\u6d3b\u5e72\u60f3\u56de\u6cb3\u5317\u8001\u5bb6 ...
p696
stp697
Rp698
sg10
(lp699
g0
(g1
g2
(dp700
g13
Vhttp://bbs.voc.com.cn/topic-8311812-1-1.html
p701
sg15
g16
sg17
g18
stp702
Rp703
asg119
g61
((I2018
I4
I11
I1
I34
I56
I2
I101
I0
tp704
(dp705
tp706
Rp707
sg124
V\u5601\u5601\u55b3\u55b3
p708
sg43
V\u201c\u88f8\u5954\u201d\u7684\u5feb\u9012\u8f66\uff0c\u8be5\u7ba1\u7ba1\u4e86
p709
sg127
g696
sS'title_detail'
p710
g0
(g1
g2
(dp711
g29
Vhttp://bbs.voc.com.cn/rss.php?fid=76
p712
sg15
g31
sg21
Nsg32
g709
stp713
Rp714
sg37
g701
sg133
(lp715
g0
(g1
g2
(dp716
g136
g708
stp717
Rp718
asS'author_detail'
p719
g718
sg140
(lp720
g0
(g1
g2
(dp721
g143
V\u8fa3\u773c\u65f6\u8bc4
p722
sg145
Nsg146
Nstp723
Rp724
asg149
VWed, 11 Apr 2018 09:34:56 +0800
p725
stp726
Rp727
ag0
(g1
g2
(dp728
S'summary_detail'
p729
g0
(g1
g2
(dp730
g29
Vhttp://bbs.voc.com.cn/rss.php?fid=76
p731
sg15
g49
sg21
Nsg32
V\u300a\u4eba\u6c11\u65e5\u62a5\u300b\u6628\u5929\u62a5\u9053\uff0c\u5317\u4eac\u5e02\u95e8\u5934\u6c9f\u533a\u6700\u8fd1\u542f\u52a8\u5b9e\u65bd\u4e2d\u5c0f\u5b66\u6559\u5e08\u201c\u533a\u7ba1\u6821\u8058\u201d\u5236\u5ea6\uff0c\u533a\u57df\u5185\u516c\u529e\u6821\u7684\u4f18\u79c0\u6559\u5e08\u53ef\u4ee5\u6253\u7834\u6821\u9645\u754c\u9650\uff0c\u5b9e\u73b0\u8de8\u6821\u6d41\u52a8\uff0c\u9664\u4e86\u5728\u672c\u5b66\u6821\u6559\u8bfe\u4ee5\u5916\uff0c\u8fd8\u8981\u5230\u533a\u5185\u5176\u4ed6\u5b66\u6821\u517c\u8bfe\u3002\u8fd9\u6837\u7684\u6559\u5e08\u88ab\u79f0\u4e3a\u201c\u5171\u4eab\u6559\u5e08\u201d\u3002\u4f17\u6240\u5468\u77e5\uff0c\u5e08\u8d44\u5206\u914d\u662f\u6559\u80b2\u516c\u5e73\u7684\u91cd\u8981\u56e0\u7d20\u3002\u591a\u5e74\u6765\uff0c\u6559\u5e08\u8d44\u6e90\u7684\u5206\u5e03\uff0c\u5448\u73b0\u57ce\u5e02\u4f18\u4e8e\u519c\u6751\uff0c\u4e2d\u5fc3\u5730\u533a\u4f18\u4e8e\u504f\u8fdc\u5730\u533a\u7684\u7279\u70b9\uff0c\u4e00\u76f4\u963b\u788d\u7740\u6559\u80b2\u516c\u5e73\u7684\u63a8\u8fdb\u3002\u201c\u5171\u4eab\u6559\u5e08\u201d\u65e0\u7591\u6709\u5229\u4e8e\u6559\u80b2\u516c\u5e73\u7684\u5b9e\u73b0\u3002\u6240\u8c13\u201c\u533a\u7ba1\u6821\u8058\u201d\uff0c\u76ee\u7684\u662f\u628a\u6559\u5e08\u7531\u201c\u5b66\u6821\u4eba\u201d\u53d8\u4e3a\u201c\u7cfb\u7edf\u4eba\u201d\uff0c\u5e08\u8d44\u7684\u914d\u7f6e\u3001\u4f7f\u7528\uff0c\u7531\u533a\u6559\u80b2\u5c40\u7edf\u7b79\u5b89\u6392\uff0c\u5728\u4e00\u4e2a\u533a\u7684\u6559\u80b2\u7cfb\u7edf\u5185 ...
p732
stp733
Rp734
sg10
(lp735
g0
(g1
g2
(dp736
g13
Vhttp://bbs.voc.com.cn/topic-8311807-1-1.html
p737
sg15
g16
sg17
g18
stp738
Rp739
asg119
g61
((I2018
I4
I11
I1
I32
I20
I2
I101
I0
tp740
(dp741
tp742
Rp743
sg124
Vcountryroad
p744
sg43
V\u5171\u4eab\u6559\u5e08\uff0c\u8d2f\u5f7b\u4e0a\u4e0d\u5e94\u6253\u5c0f\u4e5d\u4e5d
p745
sg127
g732
sS'title_detail'
p746
g0
(g1
g2
(dp747
g29
Vhttp://bbs.voc.com.cn/rss.php?fid=76
p748
sg15
g31
sg21
Nsg32
g745
stp749
Rp750
sg37
g737
sg133
(lp751
g0
(g1
g2
(dp752
g136
g744
stp753
Rp754
asS'author_detail'
p755
g754
sg140
(lp756
g0
(g1
g2
(dp757
g143
V\u8fa3\u773c\u65f6\u8bc4
p758
sg145
Nsg146
Nstp759
Rp760
asg149
VWed, 11 Apr 2018 09:32:20 +0800
p761
stp762
Rp763
ag0
(g1
g2
(dp764
S'summary_detail'
p765
g0
(g1
g2
(dp766
g29
Vhttp://bbs.voc.com.cn/rss.php?fid=76
p767
sg15
g49
sg21
Nsg32
V\u4ea4\u901a\u5b89\u5168\u5931\u4fe1\u4e0e\u4e2a\u4eba\u4fe1\u7528\u6302\u94a9,\u4e25\u91cd\u4ea4\u901a\u5b89\u5168\u5931\u4fe1\u8bb0\u5f55\u8005\u5c06\u88ab\u9650\u5236\u4e58\u5750\u98de\u673a\u3001\u4e58\u5750\u9ad8\u7b49\u7ea7\u5217\u8f66\u548c\u5e2d\u6b21\u3002\u7a0e\u52a1\u3001\u5b89\u76d1\u3001\u94f6\u884c\u7b49\u90e8\u95e8\u5bf9\u7533\u8bf7\u4eba\u6709\u4e25\u91cd\u4ea4\u901a\u5b89\u5168\u5931\u4fe1\u8bb0\u5f55\u7684,\u63d0\u9ad8\u8d37\u6b3e\u5229\u7387\u548c\u8d22\u4ea7\u4fdd\u9669\u7387,\u9650\u5236\u5411\u5176\u63d0\u4f9b\u8d37\u6b3e\u3001\u4fdd\u9669\u7b49\u670d\u52a1\u2026\u2026\u8fd1\u65e5,\u300a\u5e7f\u4e1c\u7701\u9053\u8def\u4ea4\u901a\u5b89\u5168\u4fe1\u7528\u7ba1\u7406\u529e\u6cd5(\u8bd5\u884c)\u300b\u516c\u5f00\u5f81\u6c42\u793e\u4f1a\u5404\u754c\u610f\u89c1\u3002\u73b0\u4ee3\u793e\u4f1a,\u5f81\u4fe1\u4f53\u7cfb\u662f\u6cd5\u6cbb\u4e4b\u5916\u91cd\u8981\u7684\u6cbb\u7406\u624b\u6bb5,\u6211\u56fd\u5df2\u7ecf\u6b65\u5165\u6c7d\u8f66\u793e\u4f1a,\u4f46\u6c7d\u8f66\u6587\u660e\u7684\u57f9\u80b2\u8fdc\u8fdc\u6ede\u540e,\u9700\u8981\u9664\u4ea4\u901a\u6267\u6cd5\u4e4b\u5916\u66f4\u6709\u6548\u7684\u4ea4\u901a\u5b89\u5168\u6cbb\u7406\u7ea6\u675f\u624b\u6bb5\u3002\u5236\u8ba2\u529e\u6cd5\u5c06\u4ea4\u901a\u8fdd\u6cd5\u7eb3\u5165\u4e2a\u4eba\u4e0d\u826f\u5f81\u4fe1\u8bb0\u5f55,\u65e0\u7591\u5177\u6709\u79ef\u6781\u7684\u5bfc\u5411\u610f\u4e49\u3002\u4e0d\u8fc7,\u4e5f\u8981\u7406\u6027\u770b\u5230,\u4ea4\u901a\u8fdd\u6cd5\u7eb3 ...
p768
stp769
Rp770
sg10
(lp771
g0
(g1
g2
(dp772
g13
Vhttp://bbs.voc.com.cn/topic-8311798-1-1.html
p773
sg15
g16
sg17
g18
stp774
Rp775
asg119
g61
((I2018
I4
I11
I1
I30
I40
I2
I101
I0
tp776
(dp777
tp778
Rp779
sg124
V\u5c24\u5229\u8036\u5c14
p780
sg43
V\u4ea4\u901a\u8fdd\u6cd5\u4e0e\u4fe1\u7528\u6302\u94a9\uff0c\u987b\u628a\u63e1\u597d\u9650\u5ea6
p781
sg127
g768
sS'title_detail'
p782
g0
(g1
g2
(dp783
g29
Vhttp://bbs.voc.com.cn/rss.php?fid=76
p784
sg15
g31
sg21
Nsg32
g781
stp785
Rp786
sg37
g773
sg133
(lp787
g0
(g1
g2
(dp788
g136
g780
stp789
Rp790
asS'author_detail'
p791
g790
sg140
(lp792
g0
(g1
g2
(dp793
g143
V\u8fa3\u773c\u65f6\u8bc4
p794
sg145
Nsg146
Nstp795
Rp796
asg149
VWed, 11 Apr 2018 09:30:40 +0800
p797
stp798
Rp799
ag0
(g1
g2
(dp800
S'summary_detail'
p801
g0
(g1
g2
(dp802
g29
Vhttp://bbs.voc.com.cn/rss.php?fid=76
p803
sg15
g49
sg21
Nsg32
V\u5b66\u6821\u98df\u5802\u9910\u996e\u7531\u4e8e\u6d89\u53ca\u4eba\u6570\u591a\u3001\u7275\u6d89\u5229\u76ca\u5e7f\u3001\u7ba1\u7406\u96be\u5ea6\u5927\uff0c\u59cb\u7ec8\u662f\u793e\u4f1a\u6cbb\u7406\u7684\u91cd\u70b9\u548c\u96be\u70b9\u3002\u9664\u4e86\u5fc5\u987b\u5b88\u597d\u98df\u54c1\u5b89\u5168\u7684\u5e95\u7ebf\uff0c\u8fd8\u5f97\u8003\u8651\u5230\u5176\u516c\u76ca\u5c5e\u6027\u3002\u8ba9\u5b66\u751f\u4eec\u5403\u5f97\u8212\u5fc3\u3001\u5b89\u5168\u3001\u6ee1\u610f\uff0c\u5f53\u662f\u5b66\u6821\u98df\u5802\u8ffd\u6c42\u7684\u7ec8\u6781\u76ee\u6807\u3002\u9274\u4e8e\u5e02\u573a\u4e0e\u516c\u76ca\u5b58\u5728\u77db\u76fe\uff0c\u5c24\u5176\u662f\u5728\u5b89\u5168\u98ce\u9669\u8f83\u9ad8\u3001\u5b89\u5168\u4e8b\u4ef6\u96be\u4ee5\u5b8c\u5168\u907f\u514d\u7684\u73b0\u5b9e\u4e0b\uff0c\u5b66\u6821\u98df\u5802\u7684\u7ecf\u8425\u7ba1\u7406\u91c7\u53d6\u5e02\u573a\u5316\u8fd0\u4f5c\u6a21\u5f0f\uff0c\u5e94\u5f53\u614e\u4e4b\u53c8\u614e\u3002\u4e3a\u5b9e\u73b0\u5b66\u6821\u98df\u5802\u7684\u516c\u76ca\u6027\u4e0e\u5b89\u5168\u6027\uff0c\u786e\u4fdd\u98df\u54c1\u5b89\u5168\u7b2c\u4e00\u8d23\u4efb\u7684\u843d\u5b9e\uff0c\u201c\u4e49\u52a1\u6559\u80b2\u9636\u6bb5\u7684\u98df\u5802\u539f\u5219\u4e0a\u7531\u5b66\u6821\u81ea\u4e3b\u7ecf\u8425\u201d\u5df2\u6210\u6cd5\u5f8b\u8981\u6c42\u548c\u65e5\u5e38\u89c4\u8303\u3002\u6bd4\u5982\u56db\u5ddd\u7701\u89c4\u5b9a\uff0c\u4e49\u52a1\u6559\u80b2\u9636\u6bb5\u7684\u5b66\u6821\u98df\u5802\u7531\u5b66\u6821\u81ea\u4e3b\u7ecf\u8425\uff0c ...
p804
stp805
Rp806
sg10
(lp807
g0
(g1
g2
(dp808
g13
Vhttp://bbs.voc.com.cn/topic-8311793-1-1.html
p809
sg15
g16
sg17
g18
stp810
Rp811
asg119
g61
((I2018
I4
I11
I1
I29
I11
I2
I101
I0
tp812
(dp813
tp814
Rp815
sg124
V\u4e01\u6ee1\u548c\u5f6d\u5f6d
p816
sg43
V\u5b66\u6821\u98df\u5802\u516c\u76ca\u5c5e\u6027\u4e0d\u80fd\u52a8\u6447
p817
sg127
g804
sS'title_detail'
p818
g0
(g1
g2
(dp819
g29
Vhttp://bbs.voc.com.cn/rss.php?fid=76
p820
sg15
g31
sg21
Nsg32
g817
stp821
Rp822
sg37
g809
sg133
(lp823
g0
(g1
g2
(dp824
g136
g816
stp825
Rp826
asS'author_detail'
p827
g826
sg140
(lp828
g0
(g1
g2
(dp829
g143
V\u8fa3\u773c\u65f6\u8bc4
p830
sg145
Nsg146
Nstp831
Rp832
asg149
VWed, 11 Apr 2018 09:29:11 +0800
p833
stp834
Rp835
ag0
(g1
g2
(dp836
S'summary_detail'
p837
g0
(g1
g2
(dp838
g29
Vhttp://bbs.voc.com.cn/rss.php?fid=76
p839
sg15
g49
sg21
Nsg32
V4\u67081\u65e5\u665a\uff0c\u6cb3\u5317\u90a2\u53f0\u90a2\u4e34\u9ad8\u901f\u6536\u8d39\u7ad9\uff0c\u6551\u62a4\u8f66\u9a7e\u9a76\u5458\u4e0e\u6536\u8d39\u5458\u56e0120\u6551\u62a4\u8f66\u662f\u5426\u5e94\u7f34\u8d39\u901a\u884c\u53d1\u751f\u4e89\u6267\uff0c\u5bfc\u81f4\u8f66\u8f86\u6ede\u7559\u3002\u9ad8\u901f\u516c\u8def\u5de5\u4f5c\u4eba\u5458\u56de\u5e94\u79f0\uff0c\u6551\u62a4\u8f66\u4e0d\u662f\u516c\u76ca\u6027\u8f66\u8f86\uff0c\u4e0d\u5c5e\u4e8e\u514d\u5f81\u8303\u56f4\u3002\uff08\u300a\u65b0\u4eac\u62a5\u300b4\u67089\u65e5\uff09\u6551\u62a4\u8f66\u4e0d\u7f34\u8d39\u88ab\u62e6\uff0c\u5e76\u975e\u5b64\u4f8b\u3002\u6b64\u524d\u5728\u5c71\u4e1c\u3001\u56db\u5ddd\u7b49\u591a\u5730\u9ad8\u901f\u8def\u6bb5\u90fd\u53d1\u751f\u8fc7\u7c7b\u4f3c\u4e8b\u4ef6\u3002\u6309\u7406\u8bf4\uff0c\u6551\u62a4\u8f66\u5177\u6709\u516c\u5171\u670d\u52a1\u5c5e\u6027\uff0c\u5e94\u8be5\u4eab\u6709\u4e00\u5b9a\u7684\u901a\u884c\u4fbf\u5229\uff0c\u6bd4\u5982\u514d\u6536\u9ad8\u901f\u901a\u884c\u8d39\uff0c\u6bd4\u5982\u5148\u901a\u8fc7\u518d\u7531\u5355\u4f4d\u7edf\u4e00\u7ed3\u7b97\uff0c\u7b49\u7b49\u3002\u4f46\u662f\uff0c\u76ee\u524d\u56fd\u5bb6\u6cd5\u5f8b\u6cd5\u89c4\u5c42\u9762\u5bf9\u6b64\u5e76\u65e0\u7edf\u4e00\u89c4\u5b9a\uff0c\u5404\u4e2a\u5730\u65b9\u7684\u653f\u7b56\u4e0d\u7edf\u4e00\uff0c\u66f4\u591a\u7701\u4efd\u5e76\u672a\u5c06\u6551\u62a4\u8f66\u7eb3\u5165\u51cf\u514d\u9ad8\u901f\u901a\u884c\u8d39\u7684\u8303\u56f4\u5185\u3002\u8def\u6865\u6536\u8d39\u4eba ...
p840
stp841
Rp842
sg10
(lp843
g0
(g1
g2
(dp844
g13
Vhttp://bbs.voc.com.cn/topic-8311780-1-1.html
p845
sg15
g16
sg17
g18
stp846
Rp847
asg119
g61
((I2018
I4
I11
I1
I24
I22
I2
I101
I0
tp848
(dp849
tp850
Rp851
sg124
V\u679c\u51bb\u2605\u5e03\u4e01
p852
sg43
V\u4e89\u6e05\u695a\u6551\u62a4\u8f66\u8be5\u4e0d\u8be5\u6536\u8d39\u524d\uff0c\u8bf7\u4e3a\u751f\u547d\u8ba9\u8def
p853
sg127
g840
sS'title_detail'
p854
g0
(g1
g2
(dp855
g29
Vhttp://bbs.voc.com.cn/rss.php?fid=76
p856
sg15
g31
sg21
Nsg32
g853
stp857
Rp858
sg37
g845
sg133
(lp859
g0
(g1
g2
(dp860
g136
g852
stp861
Rp862
asS'author_detail'
p863
g862
sg140
(lp864
g0
(g1
g2
(dp865
g143
V\u8fa3\u773c\u65f6\u8bc4
p866
sg145
Nsg146
Nstp867
Rp868
asg149
VWed, 11 Apr 2018 09:24:22 +0800
p869
stp870
Rp871
ag0
(g1
g2
(dp872
S'summary_detail'
p873
g0
(g1
g2
(dp874
g29
Vhttp://bbs.voc.com.cn/rss.php?fid=76
p875
sg15
g49
sg21
Nsg32
V4\u67088\u65e5\uff0c\u6211\u53bb\u4e0a\u6d77\u79fb\u52a8\u5f90\u6c47\u533a\u67d0\u8425\u4e1a\u5385\uff0c\u51c6\u5907\u628a\u81ea\u5df1\u7528\u4e86\u5feb\u5341\u5e74\u7684\u4e00\u4e2a\u79fb\u52a8\u624b\u673a\u53f7\u7801\u6ce8\u9500\u3002\u6ce8\u9500\u7684\u539f\u56e0\u5f88\u7b80\u5355\uff0c\u5bb6\u4e2d\u4e00\u76f4\u4f7f\u7528\u4e2d\u56fd\u7535\u4fe1\u7684\u5bbd\u5e26\uff0c\u800c\u7535\u4fe1\u63d0\u4f9b\u7684\u5bb6\u5ead\u5957\u9910\u76f8\u5bf9\u6765\u8bf4\u975e\u5e38\u6709\u8bf1\u60d1\u3002\u6211\u5df2\u7ecf\u4f7f\u7528\u4e86\u53e6\u5916\u4e00\u4e2a\u7535\u4fe1\u53f7\u7801\u5f88\u4e45\uff0c\u4eca\u5e74\u7535\u4fe1\u7684\u65b0\u5957\u9910\u53c8\u589e\u52a0\u4e86\u65b0\u7684\u526f\u5361\uff0c\u8fd9\u4e2a\u8001\u53f7\u7801\u8fde\u4f5c\u4e3a\u5907\u7528\u5361\u7684\u5fc5\u8981\u4e5f\u6ca1\u6709\u4e86\u3002\u6d41\u7a0b\u5f88\u5feb\u3002\u6700\u540e\uff0c\u5de5\u4f5c\u4eba\u5458\u95ee\u6211\uff0c\u8d26\u6237\u5185\u8fd8\u670940\u591a\u5143\u4f59\u989d\uff0c\u201c\u8981\u8f6c\u7ed9\u54ea\u4e00\u4e2a\u79fb\u52a8\u624b\u673a\u53f7\u7801\uff1f\u201d\u6211\u6709\u70b9\u7cca\u6d82\uff0c\u8bf4\uff0c\u5bb6\u91cc\u6ca1\u6709\u79fb\u52a8\u7684\u624b\u673a\u53f7\u7801\u4e86\u3002\u201c\u53ea\u8981\u662f\u4e0a\u6d77\u79fb\u52a8\u7684\u53f7\u7801\u90fd\u884c\u3002\u201d\u201c\u6ca1\u6709\u3002\u201d\u201c\u90a3\u4e48\u201d\uff0c\u5de5\u4f5c\u4eba\u5458\u770b\u7740\u6211\uff0c\u8bf4\uff1a\u201c\u60a8\u7684\u4f59\u6b3e\u51c6\u5907\u653e\u5f03\u5417\uff1f\u201d\u6211\u7684\u4f59 ...
p876
stp877
Rp878
sg10
(lp879
g0
(g1
g2
(dp880
g13
Vhttp://bbs.voc.com.cn/topic-8310268-1-1.html
p881
sg15
g16
sg17
g18
stp882
Rp883
asg119
g61
((I2018
I4
I10
I3
I39
I16
I1
I100
I0
tp884
(dp885
tp886
Rp887
sg124
V\u81ea\u7531\u57fa
p888
sg43
V\u624b\u673a\u8f6c\u7f51\u96be\u3001\u9500\u53f7\u96be\uff0c\u8fd0\u8425\u5546\u7684\u5c0f\u4e5d\u4e5d\u8fd8\u8981\u6253\u5230\u4f55\u65f6
p889
sg127
g876
sS'title_detail'
p890
g0
(g1
g2
(dp891
g29
Vhttp://bbs.voc.com.cn/rss.php?fid=76
p892
sg15
g31
sg21
Nsg32
g889
stp893
Rp894
sg37
g881
sg133
(lp895
g0
(g1
g2
(dp896
g136
g888
stp897
Rp898
asS'author_detail'
p899
g898
sg140
(lp900
g0
(g1
g2
(dp901
g143
V\u8fa3\u773c\u65f6\u8bc4
p902
sg145
Nsg146
Nstp903
Rp904
asg149
VTue, 10 Apr 2018 11:39:16 +0800
p905
stp906
Rp907
ag0
(g1
g2
(dp908
S'summary_detail'
p909
g0
(g1
g2
(dp910
g29
Vhttp://bbs.voc.com.cn/rss.php?fid=76
p911
sg15
g49
sg21
Nsg32
V\u4eca\u65e5\u8981\u95fb\u8bc4\u8bba\u7537\u5b50\u6d89\u5acc\u6740\u5bb3\u90bb\u5c45\u592b\u5987\u540e\u6f5c\u9003\u88ab\u53d1\u73b0\u65f6\u5df2\u6b7b\u4ea1\u8bc4\u8bba\uff1a\u5904\u7406\u4e86\u5c31\u597d\u3002\u7f8e\u5a92\u53d1\u5e03\u5bf9\u4e60\u8fd1\u5e73\u535a\u9ccc\u8bb2\u8bdd\u770b\u6cd5\u4f46\u5374\u641e\u9519\u91cd\u70b9\u8bc4\u8bba\uff1a\u611a\u8822\u7684\u7ed3\u679c\u3002\u5e7f\u5dde\u63a8\u884c\u957f\u8005\u996d\u5802\u53ea\u97006-12\u5143\u8001\u4eba\u5c31\u53ef\u4eab\u4e24\u8364\u4e00\u7d20\u8bc4\u8bba\uff1a\u597d\u3002\u5e7f\u4e1c\u53c8\u4e00\u5bb6\u6e14\u573a\u4e07\u5c3e\u9c9f\u9c7c\u6b7b\u4ea1\u8b66\u65b9\u521d\u5224\u7cfb\u6295\u6bd2\u8bc4\u8bba\uff1a\u8b66\u5bdf\uff0c\u5904\u7406\u4e00\u4e0b\u3002\u4e0a\u6d77\u7834\u83b728\u5e74\u524d\u6bcd\u5a74\u9047\u5bb3\u6848\u8d77\u56e0\u4ec5\u662f\u4e00\u53f0\u6e38\u620f\u673a\u8bc4\u8bba\uff1a\u5904\u7406\u4e86\u5c31\u597d\u3002\u5929\u6d25\u5927\u5b66\u4e00\u540d\u7855\u58eb\u5b66\u4f4d\u8bba\u6587\u6d89\u5acc\u5927\u9762\u79ef\u6284\u88ad\u8bc4\u8bba\uff1a\u611a\u8822\u7684\u7ed3\u679c\uff0c\u5199\u7bc7\u8bba\u6587\u90fd\u4e0d\u4f1a\u3002\u7f51\u5e97\u96c7\u4eba\u4e70\u514d\u7a0e\u5546\u54c1\u5165\u5883\u5356\u8d1f\u8d23\u4eba\u6d89\u8d70\u79c1\u88ab\u52246\u5e74\u8bc4\u8bba\uff1a\u5904\u7406\u4e86\u5c31\u597d\u3002\u4e71\uff10\u9ed1\u5916\u6559\u201d\u5b66\u5386\u5168\u9020\u5047\u5bb6\u957f\u53ea\u8ba4\u5916\u56fd\u8138\u8bc4\u8bba\uff1a\u6709\u5173\u90e8\u95e8\u5e94\u8be5\u5904\u7406 ...
p912
stp913
Rp914
sg10
(lp915
g0
(g1
g2
(dp916
g13
Vhttp://bbs.voc.com.cn/topic-8311006-1-1.html
p917
sg15
g16
sg17
g18
stp918
Rp919
asg119
g61
((I2018
I4
I10
I9
I47
I39
I1
I100
I0
tp920
(dp921
tp922
Rp923
sg124
Vmitankilor
p924
sg43
V\u4eca\u65e5\u8981\u95fb\u8bc4\u8bba[\u539f\u521b]
p925
sg127
g912
sS'title_detail'
p926
g0
(g1
g2
(dp927
g29
Vhttp://bbs.voc.com.cn/rss.php?fid=76
p928
sg15
g31
sg21
Nsg32
g925
stp929
Rp930
sg37
g917
sg133
(lp931
g0
(g1
g2
(dp932
g136
g924
stp933
Rp934
asS'author_detail'
p935
g934
sg140
(lp936
g0
(g1
g2
(dp937
g143
V\u8fa3\u773c\u65f6\u8bc4
p938
sg145
Nsg146
Nstp939
Rp940
asg149
VTue, 10 Apr 2018 17:47:39 +0800
p941
stp942
Rp943
ag0
(g1
g2
(dp944
S'summary_detail'
p945
g0
(g1
g2
(dp946
g29
Vhttp://bbs.voc.com.cn/rss.php?fid=76
p947
sg15
g49
sg21
Nsg32
V4\u67085\u65e5\uff0c\u5218\u6768\u5927\u95f9\u6b66\u6c49\u81f3\u5927\u8fde\u7684G2627\u6b21\u9ad8\u94c1\u3002\u4e58\u5ba2\u5ea7\u4e0a\u5218\u6768\u80e1\u95f9\u3002\u626c\u8a00\u81ea\u5df1\u529b\u5ea6\u4e0d\u5c0f\uff0c\u7ea6\u8c08\u5e02\u957f\u90a3\u7b97\u8f7b\u98d8\u3002\u6562\u95ee\u8fd9\u8f66\u503c\u94b1\u591a\u5c11\uff0c\u51e0\u4ebf\u73b0\u91d1\u90fd\u53ef\u4ee5\u638f\u3002\u5230\u7ad9\u628a\u5b83\u7acb\u9a6c\u7838\u6389\uff0c\u8fd9\u8d9f\u8def\u7ebf\u4ee5\u540e\u5168\u5305\u3002\u62e8\u6253\u7535\u8bdd\u6765\u628a\u6848\u62a5\uff0c\u6b64\u7b49\u73af\u5883\u65e0\u6cd5\u7761\u89c9\u3002\u624b\u88ab\u6478\u4e86\u906d\u5230\u9a9a\u6270\uff0c\u72b6\u544a\u4e58\u8b66\u5fc5\u987b\u5750\u7262\u3002\u90bb\u5ea7\u65c5\u53cb\u624b\u673a\u62cd\u7167\uff0c\u7ef4\u62a4\u6b63\u4e49\u53d1\u51fa\u5632\u7b11\u3002\u9891\u53d7\u523a\u6fc0\u66f4\u52a0\u53d1\u98d9\uff0c\u8fd8\u8bb2\u65e5\u8bed\u5982\u72ac\u76f4\u568e\u3002\u518d\u6b21\u558a\u53eb\u8981\u628a\u4eba\u627e\uff0c\u5362\u59d3\u5e72\u7239\u731c\u662f\u7f16\u9020\u3002\u4eba\u5927\u4ee3\u8868\u7d20\u8d28\u6700\u9ad8\uff0c\u54ea\u80fd\u5bb9\u5fcd\u800d\u8d56\u8fd9\u5957\u3002\u4ece\u6b64\u522b\u518d\u6572\u5c71\u9707\u5996\uff0c\u770b\u4f60\u5c31\u662f\u800d\u620f\u80e1\u95f9\u3002\u5e73\u5fc3\u9759\u6c14\u7a0d\u5b89\u52ff\u8e81\uff0c\u63d0\u9ad8\u4fee\u517b\u975e\u5e38\u91cd\u8981\u3002\u8212\u9002\u5b89\u5168\u4eba\u6c11\u516c\u4ea4\uff0c\u548c\u8c10\u6c14\u6c1b\u5171\u540c\u8425\u9020\u3002
p948
stp949
Rp950
sg10
(lp951
g0
(g1
g2
(dp952
g13
Vhttp://bbs.voc.com.cn/topic-8309991-1-1.html
p953
sg15
g16
sg17
g18
stp954
Rp955
asg119
g61
((I2018
I4
I10
I2
I25
I54
I1
I100
I0
tp956
(dp957
tp958
Rp959
sg124
V\u884c\u8d70\u7684\u8682\u8681
p960
sg43
V[\u539f\u521b]\u89c24\u67085\u65e5\u5218\u6768\u5927\u95f9\u9ad8\u94c1\u4e8b\u4ef6\u6709\u611f
p961
sg127
g948
sS'title_detail'
p962
g0
(g1
g2
(dp963
g29
Vhttp://bbs.voc.com.cn/rss.php?fid=76
p964
sg15
g31
sg21
Nsg32
g961
stp965
Rp966
sg37
g953
sg133
(lp967
g0
(g1
g2
(dp968
g136
g960
stp969
Rp970
asS'author_detail'
p971
g970
sg140
(lp972
g0
(g1
g2
(dp973
g143
V\u8fa3\u773c\u65f6\u8bc4
p974
sg145
Nsg146
Nstp975
Rp976
asg149
VTue, 10 Apr 2018 10:25:54 +0800
p977
stp978
Rp979
ag0
(g1
g2
(dp980
S'summary_detail'
p981
g0
(g1
g2
(dp982
g29
Vhttp://bbs.voc.com.cn/rss.php?fid=76
p983
sg15
g49
sg21
Nsg32
V\u51e4\u51f0\u536b\u89c6\u6b63\u5728\u91c7\u8bbf\u4e00\u4e2a\u70ed\u8840\u9752\u5e74\uff08\u4e5f\u5c31\u662f\u6211\u4eec\u7edd\u5927\u90e8\u5206\u56fd\u4eba\u8bf4\u7684\u201c\u50bb\u4f6c\u201d\uff09\uff0c\u4ed6\u8eab\u7a7f65\u5f0f\u519b\u88c5\uff08\u53ef\u89c165\u5f0f\u519b\u88c5\u5728\u4eba\u4eec\u5fc3\u76ee\u4e2d\u7684\u5730\u4f4d\uff09\uff0c\u4e3a\u6536\u590d\u9493\u9c7c\u5c9b\u5728\u5168\u56fd\u5404\u5730\u884c\u8d70\u5450\u558a\u3002\u50cf\u201c\u4fdd\u9493\u201d\u8fd9\u79cd\u884c\u4e3a\u5728\u5927\u9646\u662f\u4e00\u4e2a\u5f88\u8fb9\u7f18\u5316\uff0c\u662f\u4e00\u4e2a\u5f88\u201c\u654f\u611f\u201d\u7684\u8bdd\u9898\uff0c\u50cf\u8fd9\u6837\u7684\u4eba\u6b63\u4e8e\u6211\u5f00\u7bc7\u8bf4\u7684\u201c\u50bb\u4f6c\u201d\u5728\u5927\u9646\u5c11\u4e4b\u53c8\u5c11\u3002\u5728\u4eba\u4eec\u5fc3\u76ee\u4e2d\u4f3c\u4e4e\u201c\u56fd\u4e8b\u5c82\u662f\u4f4d\u5351\u5fe7\uff1f\u201d\u6b63\u4e8e\u6211\u4eec\u7956\u4e0a\u4f20\u4e0b\u7684\u90a3\u53e5\u8bdd\u201c\u83ab\u95ee\u56fd\u4e8b\u201d\uff01\u8fd9\u4e5f\u5c31\u6709\u4e86\u7532\u5348\u6d77\u6218\u7684\u65f6\u5019\uff0c\u56fd\u4eba\u4e3a\u5317\u6d0b\u6c34\u5e08\u7684\u8230\u8239\u88ab\u65e5\u5bc7\u51fb\u6c89\u800c\u6b22\u547c\u7684\u53ef\u60b2\u573a\u9762\u4e86\u3002\u8fd9\u4e5f\u5c31\u6709\u4e86\u9c81\u8fc5\u7b14\u4e0b\u90a3\u4e9b\u56f4\u89c2\u4e49\u58eb\u88ab\u780d\u5934\u7684\u65f6\u5019\u8fd8\u8981\u56b7\u7740\u5531\u4e00\u9996\u5c0f\u66f2\u7684\u60b2\u54c0\u3002\u66f4\u6709\u6297\u65e5\u6218\u4e89\u7684\u65f6 ...
p984
stp985
Rp986
sg10
(lp987
g0
(g1
g2
(dp988
g13
Vhttp://bbs.voc.com.cn/topic-8310918-1-1.html
p989
sg15
g16
sg17
g18
stp990
Rp991
asg119
g61
((I2018
I4
I10
I9
I11
I39
I1
I100
I0
tp992
(dp993
tp994
Rp995
sg124
V\u91d1\u9c81\u8fc5
p996
sg43
V\u56fd\u4e8b\u5c82\u662f\u4f4d\u5351\u5fe7\uff1f
p997
sg127
g984
sS'title_detail'
p998
g0
(g1
g2
(dp999
g29
Vhttp://bbs.voc.com.cn/rss.php?fid=76
p1000
sg15
g31
sg21
Nsg32
g997
stp1001
Rp1002
sg37
g989
sg133
(lp1003
g0
(g1
g2
(dp1004
g136
g996
stp1005
Rp1006
asS'author_detail'
p1007
g1006
sg140
(lp1008
g0
(g1
g2
(dp1009
g143
V\u8fa3\u773c\u65f6\u8bc4
p1010
sg145
Nsg146
Nstp1011
Rp1012
asg149
VTue, 10 Apr 2018 17:11:39 +0800
p1013
stp1014
Rp1015
ag0
(g1
g2
(dp1016
S'summary_detail'
p1017
g0
(g1
g2
(dp1018
g29
Vhttp://bbs.voc.com.cn/rss.php?fid=76
p1019
sg15
g49
sg21
Nsg32
V\u4eca\u65e5\u8981\u95fb\u8bc4\u8bba\u675c\u7279\u5c14\u7279\uff1a\u6211\u6bd4\u4efb\u4f55\u4eba\u90fd\u66f4\u9700\u8981\u4e2d\u56fd\u8bc4\u8bba\uff1a\u597d\u3002\u7f8e\u5a01\u80c148\u5c0f\u65f6\u5185\u5bf9\u53d9\u52a8\u6b66\u4fc4\u519b\u5df2\u5904\u201c\u6218\u5907\u201d\u72b6\u6001\u8bc4\u8bba\uff1a\u795d\u613f\u4e16\u754c\u548c\u5e73\u3002\u7f8e\u5a92\u63d0\u9192\u7279\u6717\u666e\uff1a\u4eca\u65e5\u4e2d\u56fd\u53ef\u4e0d\u662f\u5f53\u5e74\u7684\u65e5\u672c\u8bc4\u8bba\uff1a\u7f8e\u56fd\u4eba\u77e5\u9053\u5c31\u597d\u3002\u53bb\u4e16\u5c0f\u592b\u59bb\u9057\u7559\u53d7\u7cbe\u80da\u80ce4\u8001\u4eba\u5bfb\u6c42\u4ee3\u5b55\u6700\u7ec8\u4ea7\u5b50\u8bc4\u8bba\uff1a\u770b\u770b\u300240\u5c81\u5927\u59d0\u626e90\u540e\u9a97\u60c5\u90ce600\u4e07\u8b66\u65b9\u516c\u5e03\u7167\u7247\u8bc4\u8bba\uff1a\u5904\u7406\u4e86\u5c31\u597d\u300290\u540e\u5973\u751f\u753b\u50cf\u8d5a\u94b1\u6708\u516510\u4e072\u5e74\u4e70\u4e86\u4e00\u5957\u623f\u8bc4\u8bba\uff1a\u52b3\u52a8\u521b\u9020\u5e78\u798f\u3002\u827a\u4eba\u5f20\u6728\u6613\u4e0e\u672a\u6210\u5e74\u5973\u53cb\u6301\u7eed\u7092\u4f5c\u5a5a\u604b\u88ab\u5fae\u535a\u7981\u8a00\u8bc4\u8bba\uff1a\u597d\u3002\u4e2d\u8f66\u79df\u8d41\u5de8\u4e8f\u9ed1\u6d1e\uff1a50\u4ebf\u56fd\u8d44\u635f\u5931\u8ba1\u52123-5\u5e74\u51cf\u503c\u5b8c\u6210\u8bc4\u8bba\uff1a\u5904\u7406\u4e86\u5c31\u597d\u3002
p1020
stp1021
Rp1022
sg10
(lp1023
g0
(g1
g2
(dp1024
g13
Vhttp://bbs.voc.com.cn/topic-8310627-1-1.html
p1025
sg15
g16
sg17
g18
stp1026
Rp1027
asg119
g61
((I2018
I4
I10
I7
I22
I55
I1
I100
I0
tp1028
(dp1029
tp1030
Rp1031
sg124
Vmitankilor
p1032
sg43
V\u4eca\u65e5\u8981\u95fb\u8bc4\u8bba[\u539f\u521b]
p1033
sg127
g1020
sS'title_detail'
p1034
g0
(g1
g2
(dp1035
g29
Vhttp://bbs.voc.com.cn/rss.php?fid=76
p1036
sg15
g31
sg21
Nsg32
g1033
stp1037
Rp1038
sg37
g1025
sg133
(lp1039
g0
(g1
g2
(dp1040
g136
g1032
stp1041
Rp1042
asS'author_detail'
p1043
g1042
sg140
(lp1044
g0
(g1
g2
(dp1045
g143
V\u8fa3\u773c\u65f6\u8bc4
p1046
sg145
Nsg146
Nstp1047
Rp1048
asg149
VTue, 10 Apr 2018 15:22:55 +0800
p1049
stp1050
Rp1051
ag0
(g1
g2
(dp1052
S'summary_detail'
p1053
g0
(g1
g2
(dp1054
g29
Vhttp://bbs.voc.com.cn/rss.php?fid=76
p1055
sg15
g49
sg21
Nsg32
V\u4eca\u5e743\u67081\u65e5\uff0c\u300a\u90fd\u5e02\u5feb\u62a5\u300b\u5168\u5a92\u4f53\u8bb0\u8005\u6536\u96c6\u4e86\u897f\u5b89\u5bb6\u957f\u96c6\u4e2d\u53cd\u6620\u7684\u5e7c\u513f\u56ed\u5165\u5b66\u96be\u3001\u4e0a\u5b66\u8d35\u3001\u4f18\u8d28\u6559\u80b2\u8d44\u6e90\u5206\u5e03\u4e0d\u5747\u3001\u6536\u53d6\u62e9\u6821\u8d39\u7b49\u4e94\u5927\u6838\u5fc3\u95ee\u9898\uff0c\u8bb0\u8005\u5e26\u7740\u4ecb\u7ecd\u4fe1\u6765\u5230\u897f\u5b89\u5e02\u6559\u80b2\u5c40\uff0c\u6309\u8981\u6c42\u8be6\u7ec6\u586b\u5199\u4e86\u91c7\u8bbf\u63d0\u7eb2\u3001\u590d\u5370\u8bc1\u4ef6\u5e76\u7559\u4e0b\u8054\u7cfb\u65b9\u5f0f\u7b49\u5f85\u91c7\u8bbf\u901a\u77e5\u3002\u8bb0\u8005\uff1a\u201c\u90a3\u6838\u5fc3\u662f\u6211\u4eec\u7684\u95ee\u9898\u628a\u9886\u5bfc\u95ee\u4f4f\u4e86\uff1f\u201d\u897f\u5b89\u5e02\u6559\u80b2\u5c40\u5ba3\u6559\u5904\u8d39\u5904\u957f\uff1a\u201c\u8bf4\u4e00\u53e5\u5b9e\u5728\u8bdd\uff0c\u4f60\u95ee\u7684\u8fd9\u4e9b\u95ee\u9898\u4e0d\u662f\u5b8c\u5168\u95ee\u4f4f\u4e86\uff0c\u4f46\u57fa\u672c\u4e0a\u662f\u8ba9\u9886\u5bfc\u6ca1\u6709\u529e\u6cd5\u9762\u5bf9\u3002\u4f60\u63d0\u7684\u95ee\u9898\uff0c\u8981\u662f\u597d\u56de\u7b54\u7684\u8bdd\uff0c\u65e9\u90fd\u7ed9\u4f60\u5b89\u6392\u4e86\u3002\u201d\uff084\u670810\u65e5\u9655\u897f\u90fd\u5e02\u62a5\uff09\u8bb0\u8005\u5411\u897f\u5b89\u6559\u80b2\u5c40\u63d0\u51fa\u91c7\u8bbf\u7fa4\u4f17\u5173\u5fc3\u7684\u6559\u80b2\u95ee\u9898\uff0c\u4f46\u8fdf\u8fdf\u672a\u83b7\u5b89\u6392\uff0c\u5bf9 ...
p1056
stp1057
Rp1058
sg10
(lp1059
g0
(g1
g2
(dp1060
g13
Vhttp://bbs.voc.com.cn/topic-8310505-1-1.html
p1061
sg15
g16
sg17
g18
stp1062
Rp1063
asg119
g61
((I2018
I4
I10
I6
I31
I21
I1
I100
I0
tp1064
(dp1065
tp1066
Rp1067
sg124
V\u674e\u84ec\u56fd
p1068
sg43
V\u201c\u597d\u56de\u7b54\u7684\u8bdd\u65e9\u5b89\u6392\u4e86\u201d\uff0c\u96f7\u8bed\u80cc\u540e\u8d39\u601d\u91cf\uff5c\u84ec\u56fd\u8bba
p1069
sg127
g1056
sS'title_detail'
p1070
g0
(g1
g2
(dp1071
g29
Vhttp://bbs.voc.com.cn/rss.php?fid=76
p1072
sg15
g31
sg21
Nsg32
g1069
stp1073
Rp1074
sg37
g1061
sg133
(lp1075
g0
(g1
g2
(dp1076
g136
g1068
stp1077
Rp1078
asS'author_detail'
p1079
g1078
sg140
(lp1080
g0
(g1
g2
(dp1081
g143
V\u8fa3\u773c\u65f6\u8bc4
p1082
sg145
Nsg146
Nstp1083
Rp1084
asg149
VTue, 10 Apr 2018 14:31:21 +0800
p1085
stp1086
Rp1087
ag0
(g1
g2
(dp1088
S'summary_detail'
p1089
g0
(g1
g2
(dp1090
g29
Vhttp://bbs.voc.com.cn/rss.php?fid=76
p1091
sg15
g49
sg21
Nsg32
V4\u67088\u65e5\uff0c\u8bb0\u8005\u4ece\u76f8\u5173\u90e8\u95e8\u83b7\u6089\uff0c\u5171\u4eab\u81ea\u884c\u8f66\u4ea7\u54c1\u8d28\u91cf\u4e13\u9879\u62bd\u67e5\u7684\u7ed3\u679c\u5df2\u7ecf\u51fa\u7089\uff0c\u8fd9\u662f\u56fd\u5bb6\u76f8\u5173\u90e8\u95e8\u9996\u6b21\u5f00\u5c55\u5bf9\u5171\u4eab\u81ea\u884c\u8f66\u4ea7\u54c1\u7684\u8d28\u91cf\u4e13\u9879\u62bd\u67e5\u3002\u7ed3\u679c\u663e\u793a\uff0c\u5728\u88ab\u62bd\u67e5\u768424\u6279\u6b21\u6837\u54c1\u4e2d\uff0c\u67093\u6279\u6b21\u4e0d\u5408\u683c\uff0c\u4e0d\u5408\u683c\u738712.5%\u3002\u9ad8\u4e8e\u8fd1\u4e24\u5e74\u666e\u901a\u81ea\u884c\u8f66\u7684\u56fd\u62bd\u4e0d\u5408\u683c\u7387\u3002\uff084\u67088\u65e5\u6f8e\u6e43\u65b0\u95fb\uff09\u5c3d\u7ba1\u5171\u4eab\u5355\u8f66\u5c5e\u4e8e\u65b0\u4e8b\u7269\uff0c\u7136\u800c\u4ece\u672c\u8d28\u4e0a\u8bf4\uff0c\u5b83\u8fd8\u662f\u5c5e\u4e8e\u4ee3\u6b65\u578b\u81ea\u884c\u8f66\u3002\u90a3\u4e48\uff0c\u5bf9\u201c\u81ea\u884c\u8f66\u201d\u8fd9\u7c7b\u5b8c\u5168\u6807\u51c6\u5316\u3001\u9ad8\u5ea6\u6210\u719f\u5316\u7684\u5de5\u4e1a\u4ea7\u54c1\u6765\u8bf4\uff0c\u4e00\u6210\u591a\u7684\u4e0d\u5408\u683c\u7387\u65e0\u7591\u662f\u6709\u4e9b\u9ad8\u5f97\u79bb\u8c31\u4e86\u3002\u8981\u77e5\u9053\uff0c\u8d28\u76d1\u90e8\u95e8\u7684\u6b64\u6b21\u62bd\u68c0\uff0c\u5e76\u6ca1\u6709\u6d89\u53ca\u5171\u4eab\u5355\u8f66\u6240\u7279\u6709\u7684GPS\u5b9a\u4f4d\u6a21\u5757\u3001\u65e0\u7ebf\u79fb\u52a8\u901a\u4fe1\u6a21\u5757\u3001\u673a\u7535 ...
p1092
stp1093
Rp1094
sg10
(lp1095
g0
(g1
g2
(dp1096
g13
Vhttp://bbs.voc.com.cn/topic-8308296-1-1.html
p1097
sg15
g16
sg17
g18
stp1098
Rp1099
asg119
g61
((I2018
I4
I9
I3
I38
I2
I0
I99
I0
tp1100
(dp1101
tp1102
Rp1103
sg124
Vdanaliu
p1104
sg43
V\u6ca1\u6709\u5b89\u5168\u7684\u5171\u4eab\u5355\u8f66\u4e0d\u4f1a\u6709\u672a\u6765
p1105
sg127
g1092
sS'title_detail'
p1106
g0
(g1
g2
(dp1107
g29
Vhttp://bbs.voc.com.cn/rss.php?fid=76
p1108
sg15
g31
sg21
Nsg32
g1105
stp1109
Rp1110
sg37
g1097
sg133
(lp1111
g0
(g1
g2
(dp1112
g136
g1104
stp1113
Rp1114
asS'author_detail'
p1115
g1114
sg140
(lp1116
g0
(g1
g2
(dp1117
g143
V\u8fa3\u773c\u65f6\u8bc4
p1118
sg145
Nsg146
Nstp1119
Rp1120
asg149
VMon, 09 Apr 2018 11:38:02 +0800
p1121
stp1122
Rp1123
ag0
(g1
g2
(dp1124
S'summary_detail'
p1125
g0
(g1
g2
(dp1126
g29
Vhttp://bbs.voc.com.cn/rss.php?fid=76
p1127
sg15
g49
sg21
Nsg32
V\u751f\u6b7b\u81ea\u53e4\u662f\u9053\u96be\u9898\u5ead\u5ba1\u73b0\u573a\uff0c\u516c\u8bc9\u4eba\u5ba3\u8bfb\u4e86\u6b7b\u8005\u5434\u654f\u751f\u524d\u5199\u7684\u9648\u8ff0\u4e66\u3002\u5434\u654f\u5728\u9648\u8ff0\u4e66\u4e2d\u8868\u793a\uff0c\u75c5\u60c5\u8fdb\u5165\u665a\u671f\u540e\uff0c\u201c\u5b9e\u5728\u662f\u75db\u82e6\u5f97\u4e0d\u5f97\u4e86\uff0c\u624d\u60f3\u627e\u4e2a\u4eba\u5f00\u8f66\u628a\u81ea\u5df1\u649e\u6b7b\u3002\u201d\u5434\u654f\u6b64\u524d\u6709\u8fc7\u81ea\u6740\uff0c\u662f\u57282017\u5e745\u6708\u4efd\uff0c\u201c\u5728\u5bb6\u559d\u4e86\u519c\u836f\uff0c\u540e\u6765\u6551\u597d\u4e86\u3002\u201d\u5434\u654f\u548c\u5f90\u7ea2\u4f1f\u662f\u670b\u53cb\uff0c\u4e24\u4eba\u76f8\u8bc610\u591a\u5e74\u3002\u5434\u654f\u89c9\u5f97\u4ed6\u5fc3\u80a0\u597d\u3001\u8001\u5b9e\uff0c\u5c31\u60f3\u8ba9\u4ed6\u5e2e\u8fd9\u4e2a\u5fd9\u3002\u4e00\u5f00\u59cb\u5f90\u7ea2\u4f1f\u5e76\u6ca1\u6709\u7b54\u5e94\uff0c\u4ed6\u5728\u5ead\u5ba1\u73b0\u573a\u79f0\uff0c\u4e4b\u540e\u5434\u654f\u201c\u4e00\u5929\u6253\u4e00\u4e2a\u7535\u8bdd\u201d\uff0c\u6c42\u4ed6\u5e2e\u5fd9\uff0c\u5176\u4e08\u592b\u738b\u658c\u4e5f\u8868\u793a\uff0c\u7edd\u5bf9\u4e0d\u4f1a\u8ffd\u7a76\u4ed6\u4efb\u4f55\u8d23\u4efb\u30022017\u5e746\u670815\u65e5\uff0c\u5434\u654f\u518d\u6b21\u7ed9\u4ed6\u6253\u7535\u8bdd\u65f6\uff0c\u4ed6\u624d\u7b54\u5e94\u3002\u8087\u4e8b\u8f66\u8f86\u7684\u884c\u8f66\u8bb0\u5f55\u4eea\u663e\u793a\uff0c\u5f53\u665a9\u65f6\u8bb8\uff0c ...
p1128
stp1129
Rp1130
sg10
(lp1131
g0
(g1
g2
(dp1132
g13
Vhttp://bbs.voc.com.cn/topic-8310202-1-1.html
p1133
sg15
g16
sg17
g18
stp1134
Rp1135
asg119
g61
((I2018
I4
I10
I3
I15
I19
I1
I100
I0
tp1136
(dp1137
tp1138
Rp1139
sg124
V\u54e5\u662f\u534e\u4ed4
p1140
sg43
V\u5e2e\u764c\u75c7\u4eb2\u4eba\u89e3\u8131\u7684\u624b\u6bb5\uff0c\u4e0d\u5e94\u5305\u62ec\u5b89\u4e50\u6b7b
p1141
sg127
g1128
sS'title_detail'
p1142
g0
(g1
g2
(dp1143
g29
Vhttp://bbs.voc.com.cn/rss.php?fid=76
p1144
sg15
g31
sg21
Nsg32
g1141
stp1145
Rp1146
sg37
g1133
sg133
(lp1147
g0
(g1
g2
(dp1148
g136
g1140
stp1149
Rp1150
asS'author_detail'
p1151
g1150
sg140
(lp1152
g0
(g1
g2
(dp1153
g143
V\u8fa3\u773c\u65f6\u8bc4
p1154
sg145
Nsg146
Nstp1155
Rp1156
asg149
VTue, 10 Apr 2018 11:15:19 +0800
p1157
stp1158
Rp1159
ag0
(g1
g2
(dp1160
S'summary_detail'
p1161
g0
(g1
g2
(dp1162
g29
Vhttp://bbs.voc.com.cn/rss.php?fid=76
p1163
sg15
g49
sg21
Nsg32
V\u4eca\uff0810\uff09\u65e5\u5348\u540e\uff0c\u515a\u5a92\u4ee5\u300a\u4e2d\u56fd\u6539\u9769\u5f00\u653e\u4e00\u5b9a\u80fd\u6210\u529f\u2014\u2014\u4e00\u8bba\u4e60\u8fd1\u5e73\u4e3b\u5e2d\u5728\u535a\u9ccc\u4e9a\u6d32\u8bba\u575b2018\u5e74\u5e74\u4f1a\u5f00\u5e55\u5f0f\u4e3b\u65e8\u6f14\u8bb2\u300b\u4e3a\u9898\u53d1\u5e03\u6587\u7ae0\u79f0\uff1a\u201c\u4e2d\u56fd\u6539\u9769\u5f00\u653e\u5fc5\u7136\u6210\u529f\uff0c\u4e5f\u4e00\u5b9a\u80fd\u591f\u6210\u529f\uff11\u8be5\u6587\u8bf4\uff0c4\u670810\u65e5\u4e60\u8fd1\u5e73\u4e3b\u5e2d\u51fa\u5e2d\u535a\u9ccc\u4e9a\u6d32\u8bba\u575b2018\u5e74\u5e74\u4f1a\u5f00\u5e55\u5f0f\u5e76\u53d1\u8868\u4e3b\u65e8\u6f14\u8bb2\uff0c\u6df1\u523b\u603b\u7ed3\u4e2d\u56fd\u6539\u9769\u5f00\u653e\u7684\u4f1f\u5927\u6210\u5c31\u3001\u91cd\u8981\u7ecf\u9a8c\u548c\u542f\u793a\u3001\u4e16\u754c\u610f\u4e49\u548c\u5f71\u54cd\uff0c\u63d0\u51fa\u4e00\u7cfb\u5217\u65b0\u7684\u6539\u9769\u5f00\u653e\u91cd\u5927\u4e3e\u63aa\uff0c\u5411\u4e16\u754c\u5ba3\u793a\u4e86\u65b0\u65f6\u4ee3\u4e2d\u56fd\u575a\u5b9a\u4e0d\u79fb\u6df1\u5316\u6539\u9769\u3001\u6269\u5927\u5f00\u653e\u7684\u575a\u5b9a\u610f\u5fd7\u548c\u575a\u5f3a\u51b3\u5fc3\uff0c\u4e3a\u63a8\u52a8\u4e9a\u6d32\u548c\u4e16\u754c\u7684\u548c\u5e73\u53d1\u5c55\u6ce8\u5165\u4e86\u5f3a\u5927\u6b63\u80fd\u91cf\u3002\u8be5\u6587\u8bf4\uff0c\u201c\u5929\u884c\u6709\u5e38\u201d\uff0c\u201c\u5e94\u4e4b\u4ee5\u6cbb\u5219\u5409\u201d\u3002\u56de\u987e40\u5e74\u4e0d\u5e73 ...
p1164
stp1165
Rp1166
sg10
(lp1167
g0
(g1
g2
(dp1168
g13
Vhttp://bbs.voc.com.cn/topic-8310886-1-1.html
p1169
sg15
g16
sg17
g18
stp1170
Rp1171
asg119
g61
((I2018
I4
I10
I8
I59
I5
I1
I100
I0
tp1172
(dp1173
tp1174
Rp1175
sg124
VMCTO_eeq20hy7p
p1176
sg43
V\u8ff0\u8bc4\uff1a\u4e2d\u7f8e\u8d38\u6613\u5173\u7cfb\u5fc5\u5c06\u8d8b\u4e8e\u4e50\u89c2 [\u539f\u521b]
p1177
sg127
g1164
sS'title_detail'
p1178
g0
(g1
g2
(dp1179
g29
Vhttp://bbs.voc.com.cn/rss.php?fid=76
p1180
sg15
g31
sg21
Nsg32
g1177
stp1181
Rp1182
sg37
g1169
sg133
(lp1183
g0
(g1
g2
(dp1184
g136
g1176
stp1185
Rp1186
asS'author_detail'
p1187
g1186
sg140
(lp1188
g0
(g1
g2
(dp1189
g143
V\u8fa3\u773c\u65f6\u8bc4
p1190
sg145
Nsg146
Nstp1191
Rp1192
asg149
VTue, 10 Apr 2018 16:59:05 +0800
p1193
stp1194
Rp1195
ag0
(g1
g2
(dp1196
S'summary_detail'
p1197
g0
(g1
g2
(dp1198
g29
Vhttp://bbs.voc.com.cn/rss.php?fid=76
p1199
sg15
g49
sg21
Nsg32
V\u51e0\u4e4e\u6ca1\u4eba\u4f1a\u6000\u7591\uff0c\u7279\u6717\u666e\u662f\u6700\u559c\u6b22\u53d1\u63a8\u7279\u7684\u56fd\u5bb6\u9886\u5bfc\u4eba\uff0c\u6ca1\u6709\u4e4b\u4e00\u3002\u5728\u7279\u6b8a\u65f6\u6bb5\uff0c\u770b\u770b\u4ed6\u7684\u63a8\u7279\u201c\u4f5c\u54c1\u201d\u5176\u5b9e\u633a\u6709\u610f\u601d\u7684\u30022017\u5e747\u67084\u65e5\u662f\u7f8e\u56fd\u72ec\u7acb\u65e5\u3002\u4e3a\u4e86\u8425\u9020\u8282\u65e5\u6c14\u6c1b\uff0c\u7279\u6717\u666e\u7279\u610f\u5728\u81ea\u5df1\u7684\u63a8\u7279\u4e0a\u53d1\u5e03\u4e86\u4e00\u6bb5\u89c6\u9891\uff1a\u89c6\u9891\u4e2d\u4ea4\u54cd\u4e50\u56e2\u4e0e\u5408\u5531\u56e2\u5408\u4f5c\u4e86\u4e00\u66f2\u201cMakeAmericaGreatAgain\u201d\uff08\u8ba9\u7f8e\u56fd\u518d\u6b21\u4f1f\u5927\uff09\u3002\u8fd9\u662f\u4e00\u9996\u4ee5\u7279\u6717\u666e\u7ade\u9009\u53e3\u53f7\u4e3a\u4e3b\u9898\u6539\u7f16\u7684\u6b4c\u66f2\u3002\u82f1\u56fd\u300a\u72ec\u7acb\u62a5\u300b\u8bc4\u8bba\u8ba4\u4e3a\uff0c\u8fd9\u9996\u6b4c\u6709\u4e00\u79cd\u201c\u5938\u5f20\u98ce\u683c\u201d\uff0c\u50cf\u201c\u653f\u6cbb\u6218\u6597\u53e3\u53f7\u201d\u3002\u7279\u6717\u666e\u5012\u4f3c\u6beb\u4e0d\u5728\u4e4e\u3002\u4e0d\u7ba1\u600e\u4e48\u8bf4\uff0c\u770b\u8d77\u6765\u4e0d\u600e\u4e48\u7740\u8c03\u7684\u7279\u6717\u666e\uff0c\u5728\u201c\u8ba9\u7f8e\u56fd\u518d\u6b21\u4f1f\u5927\u201d\u65b9\u9762\u8fd8\u662f\u52a8\u4e86\u4e9b\u8111\u7b4b\u7684\u3002\u4ece\u6700\u8fd1\u7f8e\u56fd\u4e3b\u52a8 ...
p1200
stp1201
Rp1202
sg10
(lp1203
g0
(g1
g2
(dp1204
g13
Vhttp://bbs.voc.com.cn/topic-8307214-1-1.html
p1205
sg15
g16
sg17
g18
stp1206
Rp1207
asg119
g61
((I2018
I4
I8
I8
I19
I21
I6
I98
I0
tp1208
(dp1209
tp1210
Rp1211
sg124
Vbjdzj307
p1212
sg43
V\u7279\u6717\u666e\u201c\u8ba9\u7f8e\u56fd\u518d\u6b21\u4f1f\u5927\u201d\u7684\u53e3\u53f7\u4e0d\u80fd\u9760\u6253\u538b\u4e2d\u56fd\u6765\u5b9e\u73b0
p1213
sg127
g1200
sS'title_detail'
p1214
g0
(g1
g2
(dp1215
g29
Vhttp://bbs.voc.com.cn/rss.php?fid=76
p1216
sg15
g31
sg21
Nsg32
g1213
stp1217
Rp1218
sg37
g1205
sg133
(lp1219
g0
(g1
g2
(dp1220
g136
g1212
stp1221
Rp1222
asS'author_detail'
p1223
g1222
sg140
(lp1224
g0
(g1
g2
(dp1225
g143
V\u8fa3\u773c\u65f6\u8bc4
p1226
sg145
Nsg146
Nstp1227
Rp1228
asg149
VSun, 08 Apr 2018 16:19:21 +0800
p1229
stp1230
Rp1231
ag0
(g1
g2
(dp1232
S'summary_detail'
p1233
g0
(g1
g2
(dp1234
g29
Vhttp://bbs.voc.com.cn/rss.php?fid=76
p1235
sg15
g49
sg21
Nsg32
V\u6700\u8fd1\uff0c\u592e\u89c6\u66dd\u5149\u4e86\u7518\u8083\u8003\u52d2\u96a7\u9053\u5077\u5de5\u51cf\u6599\u3001\u5f04\u865a\u4f5c\u5047\u7684\u4e8b\u60c5\u3002\u592e\u89c6\u8bb0\u8005\u5728\u76f8\u5173\u4f01\u4e1a\u548c\u653f\u5e9c\u90e8\u95e8\u7684\u91c7\u8bbf\uff0c\u53c8\u906d\u9047\u4e86\u5c42\u5c42\u8e22\u76ae\u7403\u3002\u6b64\u4e8b\u66dd\u5149\u540e\uff0c\u5f97\u5230\u7518\u8083\u7701\u59d4\u3001\u7701\u653f\u5e9c\u7684\u9ad8\u5ea6\u91cd\u89c6\uff0c\u540e\u7eed\u7684\u8ffd\u8d23\u548c\u6574\u6539\u5de5\u4f5c\u6b63\u5728\u8fdb\u884c\u4e2d\u3002\u4eba\u975e\u5723\u8d24\uff0c\u5b70\u80fd\u65e0\u8fc7\uff1f\u8fc7\u800c\u80fd\u6539\uff0c\u5584\u83ab\u5927\u7109\u3002\u672c\u6765\uff0c\u4e8b\u60c5\u5230\u4e86\u8fd9\u4e2a\u9636\u6bb5\uff0c\u8206\u8bba\u5df2\u7ecf\u57fa\u672c\u4e0a\u5904\u4e8e\u89c2\u5bdf\u8bc4\u4f30\u6574\u6539\u6548\u679c\u7684\u5e73\u9759\u671f\u3002\u7136\u800c\uff0c\u5f53\u5730\u4e00\u5bb6\u5a92\u4f53\u5728\u5176APP\u4e0a\u53d1\u8868\u6587\u7ae0\uff0c\u53c8\u4e00\u6b21\u5728\u7f51\u4e0a\u64e6\u51fa\u4e86\u706b\u82b1\u3002\u8fd9\u7bc7\u6587\u7ae0\u9898\u4e3a\u300a\u7518\u8083\u5e76\u4e0d\u662f\u4f60\u4eec\u8bf4\u7684\u90a3\u6837\u300b\uff0c\u6587\u7ae0\u79f0\uff0c\u201c\u4e00\u6761\u96a7\u9053\u548c\u51e0\u4e2a\u5b98\u5458\u6240\u66b4\u9732\u51fa\u6765\u7684\u95ee\u9898\u56fa\u7136\u8ba9\u4eba\u8b66\u9192\uff0c\u4e0d\u53ef\u7b49\u95f2\u89c6\u4e4b\uff0c\u4f46\u4e5f\u6ca1\u7406\u7531\u6210\u4e3a\u5bf9\u7518\u8083\u6574\u4e2a\u5b98\u573a ...
p1236
stp1237
Rp1238
sg10
(lp1239
g0
(g1
g2
(dp1240
g13
Vhttp://bbs.voc.com.cn/topic-8304516-1-1.html
p1241
sg15
g16
sg17
g18
stp1242
Rp1243
asg119
g61
((I2018
I4
I5
I11
I35
I16
I3
I95
I0
tp1244
(dp1245
tp1246
Rp1247
sg124
V\u6c34\u8bb8
p1248
sg43
V\u522b\u7ed9\u8003\u52d2\u96a7\u9053\u95ee\u9898\u6574\u6539\u6dfb\u4e71\u4e86
p1249
sg127
g1236
sS'title_detail'
p1250
g0
(g1
g2
(dp1251
g29
Vhttp://bbs.voc.com.cn/rss.php?fid=76
p1252
sg15
g31
sg21
Nsg32
g1249
stp1253
Rp1254
sg37
g1241
sg133
(lp1255
g0
(g1
g2
(dp1256
g136
g1248
stp1257
Rp1258
asS'author_detail'
p1259
g1258
sg140
(lp1260
g0
(g1
g2
(dp1261
g143
V\u8fa3\u773c\u65f6\u8bc4
p1262
sg145
Nsg146
Nstp1263
Rp1264
asg149
VThu, 05 Apr 2018 19:35:16 +0800
p1265
stp1266
Rp1267
ag0
(g1
g2
(dp1268
S'summary_detail'
p1269
g0
(g1
g2
(dp1270
g29
Vhttp://bbs.voc.com.cn/rss.php?fid=76
p1271
sg15
g49
sg21
Nsg32
V4\u67084\u65e5\uff0c\u6e05\u660e\u5047\u671f\u524d\u4e00\u5929\u7684\u665a\u4e0a\uff0c\u5185\u8499\u53e4\u5e08\u8303\u5927\u5b66\u76db\u4e50\u6821\u533a\u7684\u5b66\u751f\u4eec\u6253\u7b97\u5750\u6821\u8f66\u8fd4\u56de\u5e02\u533a\uff0c\u5374\u906d\u5230\u4e86\u65e0\u60c5\u7684\u62d2\u8f7d\uff0c\u6821\u65b9\u8f66\u961f\u79f0\u53ea\u80fd\u8f7d\u8001\u5e08\u3002\u8be5\u6821\u4e00\u8001\u5e08\u4e3a\u5b66\u751f\u9e23\u4e0d\u5e73\uff1a\u201c\u8001\u5e08\u662f\u4eba\uff0c\u5b66\u751f\u5c31\u4e0d\u662f\u4eba\u554a\uff1f\u8fd9\u4e48\u591a\u4eba\u600e\u4e48\u8d70\uff1f\u201d\u4e0d\u6599\u6821\u65b9\u5de5\u4f5c\u4eba\u5458\u5927\u558a\uff1a\u201c\u4e0d\u7ba1\uff0c\u4e0d\u7ba1\uff0c\u5c31\u4e0d\u7ba1\u3002\u201d\uff084\u67087\u65e5\u6f8e\u6e43\u65b0\u95fb\uff09\u8fd9\u5219\u9898\u4e3a\u201c\u9ad8\u6821\u6821\u8f66\u4e0b\u96ea\u5929\u62d2\u8f7d\u5b66\u751f\u53ea\u8f7d\u8001\u5e08\u6821\u65b9\uff1a\u5c31\u4e0d\u7ba1\u201d\u7684\u62a5\u9053\u4ee4\u4eba\u9519\u6115\uff1a\u4f5c\u4e3a\u4e00\u6240\u4ee5\u57f9\u517b\u4eba\u6c11\u6559\u5e08\u4e3a\u5b97\u65e8\u7684\u5e08\u8303\u5927\u5b66\uff0c\u5c45\u7136\u5728\u5927\u96ea\u5929\u62d2\u8f7d\u5b66\u751f\u53ea\u8f7d\u8001\u5e08\uff0c\u771f\u4e0d\u77e5\u5982\u6b64\u201c\u5c0a\u5e08\u201d\uff0c\u662f\u8981\u201c\u91cd\u9053\u201d\u8fd8\u662f\u201c\u8d25\u9053\u201d\u3002\u201c\u5c0a\u5e08\u91cd\u9053\u201d\u662f\u4e2d\u534e\u6c11\u65cf\u7684\u4f20\u7edf\u7f8e\u5fb7\u3002\u201c\u5c0a\u5e08\u91cd\u9053\u201d\uff0c\u5c31\u662f\u5c0a ...
p1272
stp1273
Rp1274
sg10
(lp1275
g0
(g1
g2
(dp1276
g13
Vhttp://bbs.voc.com.cn/topic-8306606-1-1.html
p1277
sg15
g16
sg17
g18
stp1278
Rp1279
asg119
g61
((I2018
I4
I8
I0
I27
I3
I6
I98
I0
tp1280
(dp1281
tp1282
Rp1283
sg124
V\u674e\u84ec\u56fd
p1284
sg43
V\u674e\u84ec\u56fd\uff1a\u6821\u8f66\u96ea\u5929\u62d2\u8f7d\u5b66\u751f\u53ea\u8f7d\u8001\u5e08\uff0c\u5982\u6b64\u201c\u5c0a\u5e08\u201d\u771f\u8352\u5510
p1285
sg127
g1272
sS'title_detail'
p1286
g0
(g1
g2
(dp1287
g29
Vhttp://bbs.voc.com.cn/rss.php?fid=76
p1288
sg15
g31
sg21
Nsg32
g1285
stp1289
Rp1290
sg37
g1277
sg133
(lp1291
g0
(g1
g2
(dp1292
g136
g1284
stp1293
Rp1294
asS'author_detail'
p1295
g1294
sg140
(lp1296
g0
(g1
g2
(dp1297
g143
V\u8fa3\u773c\u65f6\u8bc4
p1298
sg145
Nsg146
Nstp1299
Rp1300
asg149
VSun, 08 Apr 2018 08:27:03 +0800
p1301
stp1302
Rp1303
ag0
(g1
g2
(dp1304
S'summary_detail'
p1305
g0
(g1
g2
(dp1306
g29
Vhttp://bbs.voc.com.cn/rss.php?fid=76
p1307
sg15
g49
sg21
Nsg32
V2017\u5e743\u67088\u65e5\uff0c\u957f\u6625\u5e02\u516c\u5b89\u5c40\u5211\u8b66\u652f\u961f\u83b7\u5f97\u7ebf\u7d22\uff0c\u957f\u6625\u5e02\u6cf7\u6c90\u5546\u8d38\u6709\u9650\u516c\u53f8\u6d89\u5acc\u5229\u7528\u865a\u5047\u836f\u54c1\u5e7f\u544a\uff0c\u5411\u54a8\u8be2\u8001\u5e74\u4eba\u514d\u8d39\u53d1\u653e\u5e7f\u64ad\u3001\u7f8a\u7ed2\u88e4\u7b49\u793c\u54c1\uff0c\u535a\u53d6\u8001\u5e74\u4eba\u7684\u4fe1\u4efb\uff0c\u9a97\u53d6\u8001\u5e74\u4eba\u4e2a\u4eba\u548c\u60a3\u75c5\u4fe1\u606f\uff0c\u5192\u5145\u533b\u751f\u4e13\u5bb6\u5439\u5618\u548c\u5938\u5927\u836f\u54c1\u529f\u6548\uff0c\u5c06\u5ec9\u4ef7\u836f\u54c1\u4ee5\u6210\u672c\u4ef7\u51e0\u5341\u500d\u7684\u4ef7\u5411\u8001\u5e74\u4eba\u63a8\u9500\uff0c\u8bc8\u9a97\u8001\u5e74\u4eba\u751f\u6d3b\u8d39\u3002\u3002\u7ecf\u8fc7\u4e00\u5e74\u591a\u7684\u7f1c\u5bc6\u4fa6\u67e5\uff0c\u8fd1\u65e5\uff0c\u957f\u6625\u8b66\u65b9\u6210\u529f\u4fa6\u7834\u516c\u5b89\u90e8\u7763\u529e\uff0c&quot;2017.3.08&quot;\u7279\u5927\u7535\u4fe1\u7f51\u7edc\u8bc8\u9a97\u6848\uff0c\u6293\u83b7\u72af\u7f6a\u5acc\u7591\u4eba114\u4eba\uff0c\u6d89\u6848\u91d1\u989d5\u4ebf\u591a\u5143\u3002\uff08\u65b0\u6587\u5316\u62a54\u67089\u65e5\uff09\u6050\u6015\u65e0\u4eba\u4e0d\u77e5\u3001\u5927\u5bb6\u90fd\u53f8\u7a7a\u89c1\u60ef\u7684\u4e11\u6076\u73b0\u8c61\uff0c\u5168\u4e2d\u56fd\u5927\u8857\u5c0f\u5df7\u5404\u4e2a\u793e\u533a\uff0c\u65f6\u4e0d\u65f6\u95ea\u4eae\u767b ...
p1308
stp1309
Rp1310
sg10
(lp1311
g0
(g1
g2
(dp1312
g13
Vhttp://bbs.voc.com.cn/topic-8309503-1-1.html
p1313
sg15
g16
sg17
g18
stp1314
Rp1315
asg119
g61
((I2018
I4
I9
I16
I6
I49
I0
I99
I0
tp1316
(dp1317
tp1318
Rp1319
sg124
V\u5e1d\u56fd\u826f\u6c11blog
p1320
sg43
V\u5411\u8001\u4eba\u5356\u5047\u836f\u6cdb\u6ee5\u6210\u707e\uff0c\u90fd\u662f\u5957\u8def
p1321
sg127
g1308
sS'title_detail'
p1322
g0
(g1
g2
(dp1323
g29
Vhttp://bbs.voc.com.cn/rss.php?fid=76
p1324
sg15
g31
sg21
Nsg32
g1321
stp1325
Rp1326
sg37
g1313
sg133
(lp1327
g0
(g1
g2
(dp1328
g136
g1320
stp1329
Rp1330
asS'author_detail'
p1331
g1330
sg140
(lp1332
g0
(g1
g2
(dp1333
g143
V\u8fa3\u773c\u65f6\u8bc4
p1334
sg145
Nsg146
Nstp1335
Rp1336
asg149
VTue, 10 Apr 2018 00:06:49 +0800
p1337
stp1338
Rp1339
ag0
(g1
g2
(dp1340
S'summary_detail'
p1341
g0
(g1
g2
(dp1342
g29
Vhttp://bbs.voc.com.cn/rss.php?fid=76
p1343
sg15
g49
sg21
Nsg32
V\u4eca\u65e5\u8981\u95fb\u8bc4\u8bba\u675c\u7279\u5c14\u7279\u540e\u6094\u5f53\u603b\u7edf\uff1a\u6211\u6068\u4e0d\u5f97\u6345\u652f\u6301\u8005\u4e00\u5200\u8bc4\u8bba\uff1a\u675c\u7279\u5c14\u7279\u6709\u6bdb\u73bb\u81ea\u5bb6\u4eba\u6253\u81ea\u5bb6\uff1f\u6052\u5927\u9884\u5907\u961f\u4e24\u7403\u5458\u573a\u4e0a\u4e92\u6bb4\u8bc4\u8bba\uff1a\u4e92\u6bb4\u662f\u5783\u573e\u884c\u4e3a\u3002\u5b66\u6821\u9632\u4f5c\u5f0a\u8ba9\u5b66\u751f\u64cd\u573a\u66b4\u6652\u8003\u8bd5\u6559\u80b2\u5c40\u957f\uff1a\u8111\u888b\u8fdb\u6c34\u8bc4\u8bba\uff1a\u6559\u80b2\u5c40\u957f\u8bf4\u5f97\u6709\u9053\u7406\u3002\u798f\u5efa\u7537\u5b50\u4e3a\u5efa\u623f\u5360\u4eba\u7956\u575f\u8fd8\u5c06\u626b\u5893\u8005\u6253\u8fdb\u533b\u9662\u8bc4\u8bba\uff1a\u5783\u573e\u884c\u4e3a\u3002\u6734\u69ff\u60e0\u6216\u5750\u7262\u81f390\u5c81\u534a\u6570\u6c11\u4f17\u79f0\u201c\u592a\u4fbf\u5b9c\u5979\u201d\u8bc4\u8bba\uff1a\u65e0\u6240\u8c13\u7684\u3002\u6885\u82b1\u9e7f\u51b2\u4e0a\u9a6c\u8def\u88ab\u649e\u6b7b\u5c71\u4e1c\u84dd\u7fd4\uff1a\u6211\u4eec\u517b\u7684\u8bc4\u8bba\uff1a\u54c0\u60bc\u4e00\u4e0b\u3002\u6ce8\u610f\u7ba1\u7406\u3002\u9648\u5e73\uff1a\u82e5\u4e2d\u7f8e\u8d38\u6613\u6218\u5927\u6253\u5c06\u52a0\u901f\u4e2d\u56fd\u6536\u590d\u53f0\u6e7e\u901f\u5ea6\u8bc4\u8bba\uff1a\u4e5f\u8bb8\u5427\u3002\u5171\u548c\u515a\u201c\u91d1\u4e3b\u7238\u7238\u201d\u53d1\u8bdd\uff1a\u575a\u51b3\u53cd\u5bf9\u5bf9\u534e\u8d38\u6613\u6218\u8bc4\u8bba\uff1a\u597d\u3002\u6c76\u5ddd\u5730 ...
p1344
stp1345
Rp1346
sg10
(lp1347
g0
(g1
g2
(dp1348
g13
Vhttp://bbs.voc.com.cn/topic-8309025-1-1.html
p1349
sg15
g16
sg17
g18
stp1350
Rp1351
asg119
g61
((I2018
I4
I9
I9
I38
I19
I0
I99
I0
tp1352
(dp1353
tp1354
Rp1355
sg124
Vmitankilor
p1356
sg43
V\u4eca\u65e5\u8981\u95fb\u8bc4\u8bba[\u539f\u521b]
p1357
sg127
g1344
sS'title_detail'
p1358
g0
(g1
g2
(dp1359
g29
Vhttp://bbs.voc.com.cn/rss.php?fid=76
p1360
sg15
g31
sg21
Nsg32
g1357
stp1361
Rp1362
sg37
g1349
sg133
(lp1363
g0
(g1
g2
(dp1364
g136
g1356
stp1365
Rp1366
asS'author_detail'
p1367
g1366
sg140
(lp1368
g0
(g1
g2
(dp1369
g143
V\u8fa3\u773c\u65f6\u8bc4
p1370
sg145
Nsg146
Nstp1371
Rp1372
asg149
VMon, 09 Apr 2018 17:38:19 +0800
p1373
stp1374
Rp1375
ag0
(g1
g2
(dp1376
S'summary_detail'
p1377
g0
(g1
g2
(dp1378
g29
Vhttp://bbs.voc.com.cn/rss.php?fid=76
p1379
sg15
g49
sg21
Nsg32
V\u4eca\u65e5\u8981\u95fb\u8bc4\u8bba3\u5c81\u7537\u5b69\u5455\u5410\u79bb\u5947\u8eab\u4ea1\u7ee7\u6bcd\u4e70\u542b\u94c5\u7c89\u672b\u591a\u6b21\u6295\u6bd2\u8bc4\u8bba\uff1a\u7ee7\u6bcd\u6709\u6bdb\u73bb\u6740\u4eba\u662f\u5783\u573e\u884c\u4e3a\u3002\u5c0f\u5b66\u88ab\u66dd\u53d8\u76f8\u5f3a\u5236\u4e70\u793c\u670d\u6559\u80b2\u5c40\u56de\u5e94:\u5f00\u8fc7\u5bb6\u957f\u4f1a\u8bc4\u8bba\uff1a\u6709\u5173\u90e8\u95e8\u5e94\u8be5\u5904\u7406\u4e00\u4e0b\u3002\u5973\u7406\u53d1\u5e08\u7ed9\u72ec\u5c45\u8001\u4eba\u7406\u53d1\u53ea\u65361\u5143\uff1a\u526a\u4e0d\u6389\u7684\u662f\u4eba\u60c5\u8bc4\u8bba\uff1a\u8d5e\u3002\u81f4\u656c\u300210\u5c81\u7537\u5b69\u4f53\u91cd190\u65a4\u8fd8\u5c3f\u5e8a\u665a\u4e0a\u7761\u89c9\u547c\u5438\u505c\u4e0a\u5343\u6b21\u8bc4\u8bba\uff1a\u60b2\u54c0\u4e00\u4e0b\u3002\u6ce8\u610f\u5065\u5eb7\u3002\u7537\u5b50\u4e70\u624b\u673a\u5409\u7965\u53f7\u88ab\u964c\u751f\u5973\u9a9720\u591a\u4e07\u7275\u51fa\u5176\u60c5\u592b\u8bc4\u8bba\uff1a\u8b66\u5bdf\uff0c\u5904\u7406\u4e00\u4e0b\u3002\u5728\u8bfb\u533b\u5b66\u7855\u58eb\u5b9e\u4e60\u503c\u73ed\u5341\u51e0\u5c0f\u65f6\u731d\u6b7b\u66fe\u591a\u6b21\u5410\u69fd\u8bc4\u8bba\uff1a\u54c0\u60bc\u4e00\u4e0b\u300223\u5cf0\u9a86\u9a7c\u73b0\u8eab\u8857\u5934\u5f15\u56f4\u89c2\u4e3b\u4eba\u79f0\u4e0d\u5f71\u54cd\u4ea4\u901a\u8bc4\u8bba\uff1a\u8b66\u5bdf\uff0c\u5904\u7406\u4e00\u4e0b\u3002\u81ea\u95ed\u75c7\u5b69\u5b50\u753b\u5237\u5c4f\u6bcd\u4eb2\uff1a\u6211\u513f\u5b50 ...
p1380
stp1381
Rp1382
sg10
(lp1383
g0
(g1
g2
(dp1384
g13
Vhttp://bbs.voc.com.cn/topic-8309440-1-1.html
p1385
sg15
g16
sg17
g18
stp1386
Rp1387
asg119
g61
((I2018
I4
I9
I14
I58
I33
I0
I99
I0
tp1388
(dp1389
tp1390
Rp1391
sg124
Vmitankilor
p1392
sg43
V\u4eca\u65e5\u8981\u95fb\u8bc4\u8bba[\u539f\u521b]
p1393
sg127
g1380
sS'title_detail'
p1394
g0
(g1
g2
(dp1395
g29
Vhttp://bbs.voc.com.cn/rss.php?fid=76
p1396
sg15
g31
sg21
Nsg32
g1393
stp1397
Rp1398
sg37
g1385
sg133
(lp1399
g0
(g1
g2
(dp1400
g136
g1392
stp1401
Rp1402
asS'author_detail'
p1403
g1402
sg140
(lp1404
g0
(g1
g2
(dp1405
g143
V\u8fa3\u773c\u65f6\u8bc4
p1406
sg145
Nsg146
Nstp1407
Rp1408
asg149
VMon, 09 Apr 2018 22:58:33 +0800
p1409
stp1410
Rp1411
ag0
(g1
g2
(dp1412
S'summary_detail'
p1413
g0
(g1
g2
(dp1414
g29
Vhttp://bbs.voc.com.cn/rss.php?fid=76
p1415
sg15
g49
sg21
Nsg32
V\u8fd1\u65e5\uff0c\u5728\u5e7f\u4e1c\u8302\u540d\u56fd\u9645\u5c97\u8def\u6bb5\uff0c\u6267\u52e4\u6c11\u8b66\u53d1\u73b0\u4e00\u8f86\u95ef\u7ea2\u706f\u7684\u5916\u5356\u914d\u9001\u6469\u6258\u8f66\uff0c\u5bf9\u8be5\u8f66\u6838\u67e5\uff0c\u7ed3\u679c\u4ee4\u4eba\u5927\u5403\u4e00\u60ca\uff1a\u534a\u5e74\u51b2\u4e86924\u6b21\u7ea2\u706f\uff0c\u5e73\u5747\u4e00\u5929\u8981\u51b2\u4e94\u516d\u6b21\u3002\u6c11\u8b66\u5c06\u5916\u5356\u5458\u80e1\u67d0\u53ca\u5176\u6469\u6258\u8f66\u6263\u7559\uff0c\u5bf9\u5176\u65e0\u8bc1\u9a7e\u9a76\u7684\u8fdd\u6cd5\u884c\u4e3a\u5904\u4ee5\u7f5a\u6b3e1000\u5143\u5e76\u884c\u653f\u62d8\u755915\u65e5\u7684\u5904\u7f5a\uff1b\u5bf9\u5176900\u591a\u6b21\u95ef\u7ea2\u706f\u7684\u8fdd\u6cd5\u884c\u4e3a\uff0c\u8981\u7f34\u7eb3\u5341\u51e0\u4e07\u5143\u7f5a\u6b3e\uff0c\u5f53\u4e8b\u4eba\u5982\u4e0d\u5c65\u884c\uff0c\u5c06\u7533\u8bf7\u6cd5\u9662\u5f3a\u5236\u6267\u884c\u3002\uff084\u67083\u65e5\u534e\u5546\u62a5\uff09\u201c\u5916\u5356\u5458\u534a\u5e74\u95ef\u7ea2\u706f924\u6b21\uff0c\u9762\u4e34\u5341\u51e0\u4e07\u7f5a\u6b3e\u201d\u4e8b\u4ef6\u5f15\u8d77\u70ed\u8bae\uff0c\u5b9e\u5728\u56e0\u4e3a\u6b64\u4e8b\u592a\u5947\u8469\u4e86\uff1a\u65e0\u8bba\u662f\u95ef\u7ea2\u706f\u7684\u6b21\u6570\u8fd8\u662f\u9762\u4e34\u7684\u7f5a\u6b3e\uff0c\u90fd\u201c\u9ad8\u4e0d\u53ef\u6500\u201d\uff0c\u4ee4\u4eba\u548b\u820c\u3002\u6709\u7f51\u53cb\u751a\u81f3\u66ff\u8be5\u5916\u5356\u5458\u62c5\u5fe7\uff1a\u628a\u81ea ...
p1416
stp1417
Rp1418
sg10
(lp1419
g0
(g1
g2
(dp1420
g13
Vhttp://bbs.voc.com.cn/topic-8300682-1-1.html
p1421
sg15
g16
sg17
g18
stp1422
Rp1423
asg119
g61
((I2018
I4
I3
I6
I9
I26
I1
I93
I0
tp1424
(dp1425
tp1426
Rp1427
sg124
V\u674e\u84ec\u56fd
p1428
sg43
V\u674e\u84ec\u56fd\uff1a\u5916\u5356\u5458\u95ef\u7ea2\u706f924\u6b21\uff0c\u8be5\u91cd\u7f5a\u4f46\u4e0d\u8be5\u5168\u7f5a
p1429
sg127
g1416
sS'title_detail'
p1430
g0
(g1
g2
(dp1431
g29
Vhttp://bbs.voc.com.cn/rss.php?fid=76
p1432
sg15
g31
sg21
Nsg32
g1429
stp1433
Rp1434
sg37
g1421
sg133
(lp1435
g0
(g1
g2
(dp1436
g136
g1428
stp1437
Rp1438
asS'author_detail'
p1439
g1438
sg140
(lp1440
g0
(g1
g2
(dp1441
g143
V\u8fa3\u773c\u65f6\u8bc4
p1442
sg145
Nsg146
Nstp1443
Rp1444
asg149
VTue, 03 Apr 2018 14:09:26 +0800
p1445
stp1446
Rp1447
ag0
(g1
g2
(dp1448
S'summary_detail'
p1449
g0
(g1
g2
(dp1450
g29
Vhttp://bbs.voc.com.cn/rss.php?fid=76
p1451
sg15
g49
sg21
Nsg32
V\u6362\u4e2a\u624b\u673a\u5361\uff0c\u5bb6\u5f53\u5168\u88ab\u8f6c\u8d70\u600e\u4e48\u529e\uff1f\u8fd1\u65e5\uff0c\u4e2d\u56fd\u65b0\u95fb\u7f51\u62a5\u9053\uff0c\u6709\u7528\u6237\u56e0\u4e3a\u6362\u53f7\u6ca1\u6709\u89e3\u7ed1\u7b2c\u4e09\u65b9\u652f\u4ed8\u5de5\u5177\uff0c\u5c3d\u7ba1\u94f6\u884c\u5361\u5c31\u5728\u81ea\u5df1\u8eab\u8fb9\uff0c\u5374\u88ab\u76d7\u5237\u4e86\u4e0a\u4e07\u5143\u3002\u4e00\u4f4d\u5973\u58eb\u65b0\u9009\u53f7\u5165\u7f51\uff0c\u5979\u901a\u8fc7\u627e\u56de\u5bc6\u7801\u7684\u65b9\u5f0f\u767b\u5f55\u8fdb\u4e86\u201c\u4e91\u670d\u52a1\u201d\uff0c\u7adf\u7136\u53ef\u4ee5\u770b\u5230\u4e0a\u4e00\u4efb\u53f7\u4e3b\u7684\u7167\u7247\u3001\u77ed\u4fe1\u3001\u901a\u8baf\u5f55\u7b49\u3002\u5982\u4eca\uff0c\u624b\u673a\u53f7\u7801\u662f\u5404\u7c7b\u8f6f\u4ef6\u8eab\u4efd\u9a8c\u8bc1\u548c\u79fb\u52a8\u652f\u4ed8\u7684\u91cd\u8981\u51ed\u8bc1\uff0c\u5e94\u8be5\u5982\u4f55\u6d88\u9664\u201c\u4e8c\u6b21\u53f7\u201d\u5e26\u6765\u7684\u4e0d\u5229\u5f71\u54cd\u5462\uff1f\u6839\u636e\u300a\u7535\u4fe1\u6761\u4f8b\u300b\u548c\u300a\u7535\u4fe1\u7f51\u7801\u53f7\u8d44\u6e90\u7ba1\u7406\u529e\u6cd5\u300b\u7684\u6709\u5173\u89c4\u5b9a\uff0c\u7801\u53f7\u8d44\u6e90\u5f52\u56fd\u5bb6\u6240\u6709\uff0c\u9762\u5bf9\u6709\u9650\u7684\u8d44\u6e90\uff0c\u4e3a\u4e86\u63d0\u9ad8\u624b\u673a\u53f7\u7801\u7684\u5229\u7528\u7387\uff0c\u4e00\u822c\u672a\u529e\u7406\u505c\u673a\u4fdd\u53f7\u4e1a\u52a1\u4e14\u505c\u673a\u8d85\u8fc73\u4e2a\u6708\u4ee5\u4e0a\u7684 ...
p1452
stp1453
Rp1454
sg10
(lp1455
g0
(g1
g2
(dp1456
g13
Vhttp://bbs.voc.com.cn/topic-8301969-1-1.html
p1457
sg15
g16
sg17
g18
stp1458
Rp1459
asg119
g61
((I2018
I4
I4
I0
I37
I46
I2
I94
I0
tp1460
(dp1461
tp1462
Rp1463
sg124
V\u897f\u96c5\u56fe\u672a\u7720\u591c
p1464
sg43
V\u4e07\u5143\u88ab\u76d7\u5237 \u5982\u4f55\u6d88\u9664\u201c\u4e8c\u6b21\u53f7\u201d\u7684\u5371\u9669\u9690\u60a3
p1465
sg127
g1452
sS'title_detail'
p1466
g0
(g1
g2
(dp1467
g29
Vhttp://bbs.voc.com.cn/rss.php?fid=76
p1468
sg15
g31
sg21
Nsg32
g1465
stp1469
Rp1470
sg37
g1457
sg133
(lp1471
g0
(g1
g2
(dp1472
g136
g1464
stp1473
Rp1474
asS'author_detail'
p1475
g1474
sg140
(lp1476
g0
(g1
g2
(dp1477
g143
V\u8fa3\u773c\u65f6\u8bc4
p1478
sg145
Nsg146
Nstp1479
Rp1480
asg149
VWed, 04 Apr 2018 08:37:46 +0800
p1481
stp1482
Rp1483
ag0
(g1
g2
(dp1484
S'summary_detail'
p1485
g0
(g1
g2
(dp1486
g29
Vhttp://bbs.voc.com.cn/rss.php?fid=76
p1487
sg15
g49
sg21
Nsg32
V\u8fd1\u5e74\u6765\uff0c\u77ed\u89c6\u9891\u98ce\u5149\u65e0\u9650\u3002\u6709\u673a\u6784\u7edf\u8ba1\uff0c\u8fd9\u51e0\u5e74\u77ed\u89c6\u9891\u884c\u4e1a\u878d\u8d44\u603b\u989d\u8d85\u8fc7300\u4ebf\u5143\u3002\u77ed\u89c6\u9891\u7684\u7ea2\u706b\u4e0d\u4ec5\u4f53\u73b0\u5728\u878d\u8d44\u4e0a\uff0c\u8eab\u8fb9\u73a9\u77ed\u89c6\u9891\u7684\u4eba\u786e\u5b9e\u8d8a\u6765\u8d8a\u591a\u3002\u5355\u7eaf\u4ece\u5f71\u54cd\u529b\u6765\u770b\uff0c\u77ed\u89c6\u9891\u5df2\u7ecf\u4ece\u5c0f\u4f17\u8d70\u5411\u5927\u4f17\uff0c\u4ece\u975e\u4e3b\u6d41\u8d70\u5411\u4e3b\u6d41\u3002\u4f46\u662f\u6700\u8fd1\u53d1\u751f\u7684\u4e00\u4e9b\u65b0\u95fb\u663e\u793a\u51fa\uff0c\u67d0\u4e9b\u77ed\u89c6\u9891\u5e73\u53f0\u4f9d\u65e7\u672a\u8131\u8349\u83bd\u6c14\uff0c\u5bf9\u4e3b\u6d41\u793e\u4f1a\u751f\u6d3b\u4ea7\u751f\u53cd\u566c\u6548\u679c\u3002\u8fd1\u65e5\u592e\u89c6\u8c03\u67e5\u53d1\u73b0\uff0c\u5feb\u624b\u3001\u706b\u5c71\u5c0f\u89c6\u9891\u7b49\u5e73\u53f0\u4e0a\u9690\u85cf\u7740\u6570\u4ee5\u767e\u8ba1\u7684\u672a\u6210\u5e74\u5b55\u5987\u3001\u672a\u6210\u5e74\u5988\u5988\u548c\u672a\u6210\u5e74\u4e8c\u80ce\u5988\u5988\u3002\u5728\u8fd9\u4e2a\u5927\u65b0\u95fb\u4e4b\u5916\uff0c\u8fd8\u6709\u4e24\u4e2a\u5c0f\u65b0\u95fb\uff1a\u6d59\u6c5f\u6c38\u5eb7\u4e00\u7537\u5b50\u6a21\u4eff\u7f51\u7edc\u89c6\u9891\uff0c\u8fde\u62c610\u8f86\u5954\u9a70\u8f66\u6807\u5e76\u5f55\u4e0b\uff0c\u53ea\u662f\u4e3a\u4e86\u7ed9\u81ea\u5df1\u7684\u6296\u97f3\u8d26\u53f7\u589e\u52a0 ...
p1488
stp1489
Rp1490
sg10
(lp1491
g0
(g1
g2
(dp1492
g13
Vhttp://bbs.voc.com.cn/topic-8301963-1-1.html
p1493
sg15
g16
sg17
g18
stp1494
Rp1495
asg119
g61
((I2018
I4
I4
I0
I36
I30
I2
I94
I0
tp1496
(dp1497
tp1498
Rp1499
sg124
V\u5927\u87c0\u9505
p1500
sg43
V\u5feb\u624b\u6296\u97f3\u4eec\u7684\u75c5\u6bd2\u5f0f\u4f20\u64ad\u5df2\u4ece\u865a\u62df\u7a7a\u95f4\u5916\u6ea2
p1501
sg127
g1488
sS'title_detail'
p1502
g0
(g1
g2
(dp1503
g29
Vhttp://bbs.voc.com.cn/rss.php?fid=76
p1504
sg15
g31
sg21
Nsg32
g1501
stp1505
Rp1506
sg37
g1493
sg133
(lp1507
g0
(g1
g2
(dp1508
g136
g1500
stp1509
Rp1510
asS'author_detail'
p1511
g1510
sg140
(lp1512
g0
(g1
g2
(dp1513
g143
V\u8fa3\u773c\u65f6\u8bc4
p1514
sg145
Nsg146
Nstp1515
Rp1516
asg149
VWed, 04 Apr 2018 08:36:30 +0800
p1517
stp1518
Rp1519
ag0
(g1
g2
(dp1520
S'summary_detail'
p1521
g0
(g1
g2
(dp1522
g29
Vhttp://bbs.voc.com.cn/rss.php?fid=76
p1523
sg15
g49
sg21
Nsg32
V\u636e\u591a\u5bb6\u5a92\u4f53\u6700\u65b0\u62a5\u9053\u79f0\uff0c\u6e56\u5317\u8944\u9633\u5e02\u4e00\u540d73\u5c81\u5356\u83dc\u8001\u519c\uff0c\u5728\u5403\u65e9\u996d\u65f6\u4ed6\u4e09\u8f6e\u8f66\u4e0a\u7684\u79e4\u88ab\u57ce\u7ba1\u6536\u8d70\uff0c\u53ef\u5728\u8001\u519c\u524d\u5f80\u8981\u6c42\u5f52\u8fd8\u65f6\u7a81\u7136\u5012\u5730\u8eab\u4ea1\u30024\u67082\u65e5\u4e0a\u5348\uff0c\u6e56\u5317\u8944\u9633\u5e02\u6a0a\u57ce\u533a\u57ce\u7ba1\u5c40\u5de5\u4f5c\u4eba\u5458\u544a\u8bc9\u8bb0\u8005\uff0c\u57ce\u7ba1\u4eba\u5458\u6ca1\u6709\u6253\u4eba\u3002\u4e0d\u8fc7\uff0c\u5f53\u5730\u516c\u5b89\u90e8\u95e8\u8868\u793a\u5df2\u4ecb\u5165\u8c03\u67e5\uff0c\u5176\u7ed3\u679c\u4f1a\u901a\u62a5\u5bb6\u5c5e\u3002\u8001\u519c\u513f\u5ab3\u674e\u5973\u58eb\u544a\u8bc9\u8bb0\u8005\uff0c\u8bf473\u5c81\u7684\u8001\u7237\u5b50\u8fc7\u5e74\u540e\u6bcf\u5929\u90fd\u53bb\u8944\u9633\u5e02\u6a0a\u57ce\u533a\u5e78\u798f\u5c0f\u533a\u9644\u8fd1\u5356\u83dc\uff0c3\u670829\u65e5\u4e0a\u53489\u65f6\u5de6\u53f3\u8001\u7237\u5b50\u5728\u9644\u8fd1\u5403\u65e9\u996d\uff0c\u53ef\u5728\u8fd4\u56de\u65f6\u53d1\u73b0\u4e09\u8f6e\u8f66\u4e0a\u7684\u79e4\u88ab\u6536\u8d70\u4e86\u3002\u542c\u65c1\u4eba\u544a\u77e5\u662f\u57ce\u7ba1\u4eba\u5458\u6536\u8d70\u540e\uff0c\u8001\u7237\u5b50\u5c31\u524d\u53bb\u7d22\u8981\u3002\u674e\u5973\u58eb\u544a\u8bc9\u8bb0\u8005\uff1a\u201c\u76ee\u51fb\u8005\u8bf4\uff0c\u5f53\u65f6\u8001\u4eba\u548c\u4e09\u56db\u540d\u57ce\u7ba1\u4eba ...
p1524
stp1525
Rp1526
sg10
(lp1527
g0
(g1
g2
(dp1528
g13
Vhttp://bbs.voc.com.cn/topic-8301063-1-1.html
p1529
sg15
g16
sg17
g18
stp1530
Rp1531
asg119
g61
((I2018
I4
I3
I8
I34
I18
I1
I93
I0
tp1532
(dp1533
tp1534
Rp1535
sg124
VMCTO_eeq20hy7p
p1536
sg43
V[\u704c\u6c34]\u5947\uff01\u8001\u83dc\u519c\u89c1\u5230\u57ce\u7ba1\u5c31\u5012\u5730\u8eab\u4ea1
p1537
sg127
g1524
sS'title_detail'
p1538
g0
(g1
g2
(dp1539
g29
Vhttp://bbs.voc.com.cn/rss.php?fid=76
p1540
sg15
g31
sg21
Nsg32
g1537
stp1541
Rp1542
sg37
g1529
sg133
(lp1543
g0
(g1
g2
(dp1544
g136
g1536
stp1545
Rp1546
asS'author_detail'
p1547
g1546
sg140
(lp1548
g0
(g1
g2
(dp1549
g143
V\u8fa3\u773c\u65f6\u8bc4
p1550
sg145
Nsg146
Nstp1551
Rp1552
asg149
VTue, 03 Apr 2018 16:34:18 +0800
p1553
stp1554
Rp1555
ag0
(g1
g2
(dp1556
S'summary_detail'
p1557
g0
(g1
g2
(dp1558
g29
Vhttp://bbs.voc.com.cn/rss.php?fid=76
p1559
sg15
g49
sg21
Nsg32
g229
stp1560
Rp1561
sg10
(lp1562
g0
(g1
g2
(dp1563
g13
Vhttp://bbs.voc.com.cn/topic-8306772-1-1.html
p1564
sg15
g16
sg17
g18
stp1565
Rp1566
asg119
g61
((I2018
I4
I8
I2
I25
I9
I6
I98
I0
tp1567
(dp1568
tp1569
Rp1570
sg124
V\u7b20\u5361\u4e09
p1571
sg43
V\u201c\u8d34\u79bb\u804c\u9886\u5bfc\u7167\u7247\u9632\u98a0\u8986\u201d\uff0c\u4f55\u5176\u79bb\u8c31\uff1f
p1572
sg127
g229
sS'title_detail'
p1573
g0
(g1
g2
(dp1574
g29
Vhttp://bbs.voc.com.cn/rss.php?fid=76
p1575
sg15
g31
sg21
Nsg32
g1572
stp1576
Rp1577
sg37
g1564
sg133
(lp1578
g0
(g1
g2
(dp1579
g136
g1571
stp1580
Rp1581
asS'author_detail'
p1582
g1581
sg140
(lp1583
g0
(g1
g2
(dp1584
g143
V\u8fa3\u773c\u65f6\u8bc4
p1585
sg145
Nsg146
Nstp1586
Rp1587
asg149
VSun, 08 Apr 2018 10:25:09 +0800
p1588
stp1589
Rp1590
ag0
(g1
g2
(dp1591
S'summary_detail'
p1592
g0
(g1
g2
(dp1593
g29
Vhttp://bbs.voc.com.cn/rss.php?fid=76
p1594
sg15
g49
sg21
Nsg32
V\u6574\u4e2a\u6e05\u660e\u8282\u5047\u671f\uff0c\u88ab\u4e24\u573a\u6fc0\u70c8\u7684\u6821\u56ed\u5e08\u751f\u51b2\u7a81\u6240\u5145\u585e\u3002\u4e00\u662f\u6b66\u6c49\u7406\u5de5\u5927\u5b66\u7814\u7a76\u751f\u9676\u5d07\u56ed\u81ea\u6740\uff0c\u88ab\u6307\u751f\u524d\u906d\u5230\u4e86\u5bfc\u5e08\u738b\u6500\u79cd\u79cd\u201c\u538b\u8feb\u201d\uff1a\u6bcf\u665a\u8981\u53bb\u8001\u5e08\u5bb6\u91cc\uff0c\u8981\u66ff\u8001\u5e08\u6253\u996d\u3001\u7ec4\u7ec7\u7403\u961f\uff0c\u751a\u81f3\u738b\u6500\u8fd8\u5f53\u4f17\u8ba9\u6b7b\u8005\u201c\u5766\u5766\u8361\u8361\u8bf4\u51fa\u90a3\u516d\u4e2a\u5b57\u201d\u2014\u2014\u201c\u7238\u6211\u6c38\u8fdc\u7231\u4f60\u201d\u3002\u53e6\u4e00\u4ef6\u5219\u662f\u5317\u4eac\u5927\u5b66\u4e2d\u6587\u7cfb\u768420\u5e74\u524d\u65e7\u4e8b\uff0c\u591a\u540d\u6821\u53cb\u5728\u6e05\u660e\u8282\u671f\u95f4\u6307\u8d23\u5f53\u5e74\u5317\u5927\u6559\u5e08\u6c88\u9633\u6027\u4fb5\u5973\u5927\u5b66\u751f\u9ad8\u5ca9\uff0c\u81f4\u5176\u81ea\u6740\u3002\u524d\u4e00\u5219\u4e8b\u4ef6\uff0c\u6b66\u6c49\u7406\u5de5\u5927\u5b66\u505a\u51fa\u901a\u62a5\uff0c\u672a\u53d1\u73b0\u738b\u6500\u963b\u6320\u5b66\u751f\u7b54\u8fa9\u3001\u4fb5\u5360\u7ecf\u6d4e\u5229\u76ca\u7b49\u60c5\u51b5\uff0c\u4f46\u662f\u5b58\u5728\u4e0e\u5b66\u751f\u8ba4\u4e49\u7236\u5b50\u7b49\u4e0e\u6559\u5b66\u65e0\u5173\u7684\u60c5\u51b5\uff0c\u5df2\u7ecf\u6682\u505c\u4e86\u5176\u7814\u7a76\u751f\u62db\u751f\u8d44\u683c\u3002\u800c\u540e\u4e00\u8d77\u4e8b\u4ef6\u5219\u66f4 ...
p1595
stp1596
Rp1597
sg10
(lp1598
g0
(g1
g2
(dp1599
g13
Vhttp://bbs.voc.com.cn/topic-8308292-1-1.html
p1600
sg15
g16
sg17
g18
stp1601
Rp1602
asg119
g61
((I2018
I4
I9
I3
I35
I35
I0
I99
I0
tp1603
(dp1604
tp1605
Rp1606
sg124
V\u5b87\u5b99\u7684\u8fb9\u7f18
p1607
sg43
V\u523a\u7834\u201c\u6c88\u9633\u6848\u201d\u7684\u8113\u6ce1\uff0c\u662f\u4e3a\u675c\u7edd20\u5e74\u540e\u7684\u738b\u6500\u4eec
p1608
sg127
g1595
sS'title_detail'
p1609
g0
(g1
g2
(dp1610
g29
Vhttp://bbs.voc.com.cn/rss.php?fid=76
p1611
sg15
g31
sg21
Nsg32
g1608
stp1612
Rp1613
sg37
g1600
sg133
(lp1614
g0
(g1
g2
(dp1615
g136
g1607
stp1616
Rp1617
asS'author_detail'
p1618
g1617
sg140
(lp1619
g0
(g1
g2
(dp1620
g143
V\u8fa3\u773c\u65f6\u8bc4
p1621
sg145
Nsg146
Nstp1622
Rp1623
asg149
VMon, 09 Apr 2018 11:35:35 +0800
p1624
stp1625
Rp1626
ag0
(g1
g2
(dp1627
S'summary_detail'
p1628
g0
(g1
g2
(dp1629
g29
Vhttp://bbs.voc.com.cn/rss.php?fid=76
p1630
sg15
g49
sg21
Nsg32
V\u6587|\u4e8e\u5e73\u6cb3\u5317\u5b81\u664b\u201c\u7ea2\u6c34\u6d47\u5730\u201d\u4e8b\u4ef6\u4ecd\u5728\u53d1\u9175\uff0c\u5f53\u5730\u6751\u6c11\u5411\u5a92\u4f53\u8868\u793a\uff0c\u4ed6\u4eec\u4e0d\u5403\u7530\u91cc\u957f\u6210\u7684\u7cae\u98df\uff0c\u201c\u90fd\u5356\u6389\u4e86\u201d\u3002\u8be5\u8bf4\u6cd5\u7acb\u9a6c\u5f15\u53d1\u65e0\u6570\u7f51\u6c11\u7684\u5410\u69fd\u3002\u201c\u7ea2\u6c34\u6d47\u5730\u201d\u7684\u7cae\u98df\u90fd\u5356\u5230\u54ea\u91cc\u53bb\u4e86\uff1f\u4f1a\u4e0d\u4f1a\u5728\u6211\u7684\u9910\u684c\u4e0a\uff1f\u4f1a\u6709\u54ea\u4e9b\u5371\u5bb3\uff1f\u2014\u2014\u8fd9\u4e9b\u95ee\u9898\u662f\u5f53\u4e0b\u516c\u4f17\u6700\u4e3a\u5173\u5fc3\u7684\u95ee\u9898\u30024\u67082\u65e5\uff0c\u6cb3\u5317\u7701\u5b81\u664b\u53bf\u542f\u52a8\u4e86\u5e94\u6025\u9884\u6848\uff0c\u53bf\u59d4\u5ba3\u4f20\u90e8\u3001\u53bf\u73af\u4fdd\u5c40\u7b49\u76f8\u5173\u90e8\u95e8\u8d1f\u8d23\u4eba\u5c31\u6b64\u4e8b\u505a\u60c5\u51b5\u8bf4\u660e\u3002\u5b81\u664b\u5f53\u5730\u5bf9\u6d89\u4e8b\u5316\u5de5\u5382\u8d1f\u8d23\u4eba\u8fdb\u884c\u4e86\u6293\u6355\uff0c\u5f00\u5c55\u4e86\u5927\u6392\u67e5\uff0c\u5e76\u8868\u793a\u5c06\u8fdb\u884c\u571f\u58e4\u4fee\u590d\u7684\u6cbb\u7406\u3002\u5f53\u5730\u5728\u8206\u8bba\u66dd\u5149\u540e\u53ef\u8c13\u53cd\u5e94\u8fc5\u901f\uff0c\u6293\u6355\u76f8\u5173\u8d23\u4efb\u4eba\u4e5f\u5feb\u6170\u4eba\u5fc3\u3002\u901a\u89c2\u4e8b\u4ef6\u7684\u5584\u540e\u7a0b\u5e8f\uff0c\u5728\u201c\u7cae\u98df\u53bb\u54ea\u4e86 ...
p1631
stp1632
Rp1633
sg10
(lp1634
g0
(g1
g2
(dp1635
g13
Vhttp://bbs.voc.com.cn/topic-8301959-1-1.html
p1636
sg15
g16
sg17
g18
stp1637
Rp1638
asg119
g61
((I2018
I4
I4
I0
I34
I33
I2
I94
I0
tp1639
(dp1640
tp1641
Rp1642
sg124
V\u5965\u5df4\u9a6c\u662f\u4ec0\u4e48\u9b3c
p1643
sg43
V\u7ea2\u6c34\u6d47\u5730\u4e8b\u4ef6\uff1a\u66f4\u8981\u8ffd\u67e5\u7cae\u98df\u53bb\u5411
p1644
sg127
g1631
sS'title_detail'
p1645
g0
(g1
g2
(dp1646
g29
Vhttp://bbs.voc.com.cn/rss.php?fid=76
p1647
sg15
g31
sg21
Nsg32
g1644
stp1648
Rp1649
sg37
g1636
sg133
(lp1650
g0
(g1
g2
(dp1651
g136
g1643
stp1652
Rp1653
asS'author_detail'
p1654
g1653
sg140
(lp1655
g0
(g1
g2
(dp1656
g143
V\u8fa3\u773c\u65f6\u8bc4
p1657
sg145
Nsg146
Nstp1658
Rp1659
asg149
VWed, 04 Apr 2018 08:34:33 +0800
p1660
stp1661
Rp1662
ag0
(g1
g2
(dp1663
S'summary_detail'
p1664
g0
(g1
g2
(dp1665
g29
Vhttp://bbs.voc.com.cn/rss.php?fid=76
p1666
sg15
g49
sg21
Nsg32
V\u4ece\u79e6\u67d0\u67d0\u7684\u5047\u8eab\u5012\u6389\uff0c\u770b\u67d0\u5b66\u751f\u7684\u63a7\u5236\u4eba\u751f\u64b0\u6587\u4e28\u58a8\u9ed1\u7eb8\u767d\u4eca\u5e74\u7684\u6e05\u660e\u662f\u633a\u6709\u610f\u601d\u7684\uff0c\u4f46\u6709\u610f\u601d\u7684\u4e8b\u624e\u5806\u7684\u65f6\u5019\uff0c\u4e5f\u5c31\u662f\u8bc4\u8bba\u6700\u4e3a\u8270\u96be\u7684\u65f6\u5019\uff0c\u5148\u804a\u4e24\u4e2a\u4e0d\u592a\u8fc7\u654f\u611f\u7684\u4e8b\u5427\u3002\u662f\u8c01\u5728\u9020\u5c31\u67d0\u4e9b\u53d8\u6001\u7684\u8001\u5e08\uff1f\u5728\u5b66\u6821\u91cc\u6709\u6ca1\u6709\u70ed\u8877\u4e8e\u63a7\u5236\u5b66\u751f\u7684\u53d8\u6001\u8001\u5e08\uff1f\u8fd9\u662f\u6bcb\u5eb8\u7f6e\u7591\u7684\uff0c\u201c\u4eba\u65e5\u201d\u53bb\u5e749\u6708\u4efd\u7684\u65f6\u5019\u53d1\u8fc7\u4e00\u7bc7\u6587\u3002\u6587\u79f0\uff1a\u201c\u5b69\u5b50\uff0c\u5988\u5988\u5e0c\u671b\u4f60\u80fd\u9047\u89c1\u4e00\u4f4d\u624b\u6301\u6212\u5c3a\u3001\u773c\u4e2d\u6709\u5149\u7684\u8001\u5e08\u201d\u6362\u4e2a\u89d2\u5ea6\u5c31\u662f\uff0c\u65e0\u8bba\u4ece\u4f20\u5a92\u8fd8\u662f\u5230\u4f20\u7edf\u5bb6\u957f\uff0c\u90fd\u662f\u5e0c\u671b\u81ea\u5df1\u7684\u5b69\u5b50\u88ab\u63a7\u5236\u7684\u3002\u4ed6\u4eec\u6709\u4e00\u5957\u7406\u8bba\uff0c\u8bf4\u7684\u662f\uff1a\u201c\u4f60\u7684\u4e0d\u81ea\u5f8b\uff0c\u4f60\u7684\u597d\u6210\u7ee9\uff0c\u90fd\u662f\u5728\u4e25\u5e08\u548c\u4e25\u7236\u6bcd\u4e2d\u624d\u80fd\u88ab\u89c4\u907f\u548c\u4ea7\u51fa\u7684\u3002\u201d\u4ed6\u4eec\u5728 ...
p1667
stp1668
Rp1669
sg10
(lp1670
g0
(g1
g2
(dp1671
g13
Vhttp://bbs.voc.com.cn/topic-8308369-1-1.html
p1672
sg15
g16
sg17
g18
stp1673
Rp1674
asg119
g61
((I2018
I4
I9
I4
I23
I2
I0
I99
I0
tp1675
(dp1676
tp1677
Rp1678
sg124
V\u58a8\u9ed1\u7eb8\u767d
p1679
sg43
V\u4ece\u79e6\u67d0\u67d0\u7684\u5047\u8eab\u5012\u6389\uff0c\u770b\u67d0\u5b66\u751f\u7684\u63a7\u5236\u4eba\u751f[\u539f\u521b][\u8ba8\u8bba]
p1680
sg127
g1667
sS'title_detail'
p1681
g0
(g1
g2
(dp1682
g29
Vhttp://bbs.voc.com.cn/rss.php?fid=76
p1683
sg15
g31
sg21
Nsg32
g1680
stp1684
Rp1685
sg37
g1672
sg133
(lp1686
g0
(g1
g2
(dp1687
g136
g1679
stp1688
Rp1689
asS'author_detail'
p1690
g1689
sg140
(lp1691
g0
(g1
g2
(dp1692
g143
V\u8fa3\u773c\u65f6\u8bc4
p1693
sg145
Nsg146
Nstp1694
Rp1695
asg149
VMon, 09 Apr 2018 12:23:02 +0800
p1696
stp1697
Rp1698
ag0
(g1
g2
(dp1699
S'summary_detail'
p1700
g0
(g1
g2
(dp1701
g29
Vhttp://bbs.voc.com.cn/rss.php?fid=76
p1702
sg15
g49
sg21
Nsg32
V\u8bb0\u8005\u4ece\u56fd\u5bb6\u7f51\u4fe1\u529e\u83b7\u6089\uff0c\u56fd\u5bb6\u7f51\u4fe1\u529e\u8fd1\u65e5\u7ea6\u8c08\u201c\u5feb\u624b\u201d\u548c\u4eca\u65e5\u5934\u6761\u65d7\u4e0b\u201c\u706b\u5c71\u5c0f\u89c6\u9891\u201d\u76f8\u5173\u8d1f\u8d23\u4eba\uff0c\u8d23\u4ee4\u5168\u9762\u8fdb\u884c\u6574\u6539\u3002\u4e24\u5bb6\u76f8\u5173\u8d1f\u8d23\u4eba\u8868\u793a\u5b8c\u5168\u63a5\u53d7\u5904\u7f5a\uff0c\u540c\u65f6\u63d0\u51fa\u7981\u6b62\u672a\u6ee118\u5468\u5c81\u7684\u672a\u6210\u5e74\u4eba\u6ce8\u518c\u7f51\u7edc\u4e3b\u64ad\uff0c\u5df2\u6709\u8d26\u53f7\u4e00\u5f8b\u5173\u505c\u3002\uff084\u67088\u65e5\u300a\u5317\u4eac\u9752\u5e74\u62a5\u300b\uff09\u201c\u51fa\u540d\u8981\u8d81\u65e9\u201d\uff0c\u8fd9\u53e5\u8bdd\u5728\u7f51\u7edc\u76f4\u64ad\u9886\u57df\u88ab\u53d1\u6325\u5f97\u6dcb\u6f13\u5c3d\u81f4\u3002\u5f53\u5e74\u9f84\u6210\u4e3a\u6bd4\u8f83\u4f18\u52bf\uff0c\u5f53\u201c\u5356\u840c\u800d\u5b9d\u201d\u6210\u4e3a\u60ef\u7528\u4f0e\u4fe9\uff0c\u672a\u6210\u5e74\u4eba\u5728\u7f51\u7edc\u76f4\u64ad\u9886\u57df\u906d\u9047\u4e86\u67d0\u79cd\u610f\u4e49\u4e0a\u7684\u201c\u63e0\u82d7\u52a9\u957f\u201d\u3002\u7f51\u7edc\u4e3b\u64ad\u8981\u60f3\u8d62\u5f97\u7c89\u4e1d\u7684\u8ba4\u540c\u4e0e\u8d5e\u8d4f\uff0c\u4e0d\u4ec5\u9700\u8981\u5c55\u793a\u624d\u827a\uff0c\u4e5f\u9700\u8981\u82b1\u8d39\u65f6\u95f4\u4e0e\u7c89\u4e1d\u4e92\u52a8\uff1b\u8fd9\u4e0d\u4ec5\u8017\u8d39\u4e86\u672a\u6210\u5e74\u4eba\u5927\u91cf\u7684\u65f6\u95f4\uff0c\u4e5f\u4f1a ...
p1703
stp1704
Rp1705
sg10
(lp1706
g0
(g1
g2
(dp1707
g13
Vhttp://bbs.voc.com.cn/topic-8308333-1-1.html
p1708
sg15
g16
sg17
g18
stp1709
Rp1710
asg119
g61
((I2018
I4
I9
I3
I56
I55
I0
I99
I0
tp1711
(dp1712
tp1713
Rp1714
sg124
V\u9ebb\u96c0\u4ed4
p1715
sg43
V\u8bbe\u5b9a\u5e74\u9f84\u95e8\u69db\u662f\u5bf9\u76f4\u64ad\u4e71\u8c61\u7684\u7ea0\u504f
p1716
sg127
g1703
sS'title_detail'
p1717
g0
(g1
g2
(dp1718
g29
Vhttp://bbs.voc.com.cn/rss.php?fid=76
p1719
sg15
g31
sg21
Nsg32
g1716
stp1720
Rp1721
sg37
g1708
sg133
(lp1722
g0
(g1
g2
(dp1723
g136
g1715
stp1724
Rp1725
asS'author_detail'
p1726
g1725
sg140
(lp1727
g0
(g1
g2
(dp1728
g143
V\u8fa3\u773c\u65f6\u8bc4
p1729
sg145
Nsg146
Nstp1730
Rp1731
asg149
VMon, 09 Apr 2018 11:56:55 +0800
p1732
stp1733
Rp1734
ag0
(g1
g2
(dp1735
S'summary_detail'
p1736
g0
(g1
g2
(dp1737
g29
Vhttp://bbs.voc.com.cn/rss.php?fid=76
p1738
sg15
g49
sg21
Nsg32
V21\u4e16\u7eaa\u7684\u7236\u6bcd\u9700\u8981\u6743\u8861\u513f\u7ae5\u4f7f\u7528\u624b\u673a\u7684\u5229\u5f0a\uff0c\u5728\u5b69\u5b50\u4e86\u89e3\u5916\u754c\u7684\u540c\u65f6\uff0c\u9632\u6b62\u4ed6\u4eec\u6c89\u8ff7\u6e38\u620f\u6216\u8005\u4e0d\u77e5\u4e0d\u89c9\u5730\u5728\u8d2d\u7269\u8f6f\u4ef6\u4e0a\u4e0b\u5355\u3002\u6d59\u6c5f\u5927\u5b66\u7535\u6c14\u5de5\u7a0b\u5b66\u9662\u667a\u80fd\u7cfb\u7edf\u5b89\u5168\u5b9e\u9a8c\u5ba4\u5f90\u6587\u6e0a\u6559\u6388\u56e2\u961f\u548c\u7f8e\u56fd\u5357\u5361\u7f57\u6765\u7eb3\u5927\u5b66\u5408\u4f5c\uff0c\u5f00\u53d1\u51fa\u65b0\u8f6f\u4ef6iCare\uff0c\u53ef\u4ee5\u5e2e\u52a9\u89e3\u51b3\u8fd9\u4e2a\u80b2\u513f\u96be\u9898\u3002\u513f\u7ae5\u4e71\u7528\u624b\u673a\u73b0\u8c61\u5728\u73b0\u5b9e\u4e2d\u5f88\u5e38\u89c1\u3002\u6709\u7684\u5b69\u5b50\u7528\u7236\u6bcd\u624b\u673a\u5411\u7f51\u7edc\u4e3b\u64ad\u5de8\u989d\u6253\u8d4f\uff0c\u6709\u7684\u5b69\u5b50\u6c89\u8ff7\u4e8e\u624b\u673a\u6e38\u620f\u82b1\u6389\u4e86\u4e0d\u5c11\u94b1\uff0c\u8fd8\u6709\u5b69\u5b50\u7528\u624b\u673a\u6d4f\u89c8\u4e0d\u5065\u5eb7\u7684\u7f51\u7ad9\u7b49\u3002\u8fd9\u7c7b\u73b0\u8c61\u4e0d\u4ec5\u5f71\u54cd\u5230\u5b69\u5b50\u8eab\u5fc3\u5065\u5eb7\u2014\u2014\u5982\u89c6\u529b\u4e0b\u964d\u3001\u5b66\u4e60\u4e0d\u4e13\u6ce8\u7b49\uff0c\u8fd8\u4f1a\u7ed9\u5bb6\u957f\u5e26\u6765\u7ecf\u6d4e\u635f\u5931\u548c\u6cd5\u5f8b\u7ea0\u7eb7\u7b49\u3002\u5982\u4f55\u9632\u6b62\u5b69\u5b50\u4e71\u7528\u624b\u673a\uff0c\u5bb6\u957f ...
p1739
stp1740
Rp1741
sg10
(lp1742
g0
(g1
g2
(dp1743
g13
Vhttp://bbs.voc.com.cn/topic-8308330-1-1.html
p1744
sg15
g16
sg17
g18
stp1745
Rp1746
asg119
g61
((I2018
I4
I9
I3
I55
I42
I0
I99
I0
tp1747
(dp1748
tp1749
Rp1750
sg124
V\u949f\u5b87\u8f69
p1751
sg43
V\u513f\u7ae5\u4e71\u7528\u624b\u673a\uff0c\u8fd8\u9700\u5c42\u5c42\u8bbe\u9632
p1752
sg127
g1739
sS'title_detail'
p1753
g0
(g1
g2
(dp1754
g29
Vhttp://bbs.voc.com.cn/rss.php?fid=76
p1755
sg15
g31
sg21
Nsg32
g1752
stp1756
Rp1757
sg37
g1744
sg133
(lp1758
g0
(g1
g2
(dp1759
g136
g1751
stp1760
Rp1761
asS'author_detail'
p1762
g1761
sg140
(lp1763
g0
(g1
g2
(dp1764
g143
V\u8fa3\u773c\u65f6\u8bc4
p1765
sg145
Nsg146
Nstp1766
Rp1767
asg149
VMon, 09 Apr 2018 11:55:42 +0800
p1768
stp1769
Rp1770
ag0
(g1
g2
(dp1771
S'summary_detail'
p1772
g0
(g1
g2
(dp1773
g29
Vhttp://bbs.voc.com.cn/rss.php?fid=76
p1774
sg15
g49
sg21
Nsg32
V\u4e24\u4e2a\u6708\u524d\uff0c\u4e2d\u56fd\u5175\u9a6c\u4fd1\u6587\u7269\u5728\u7f8e\u56fd\u8d39\u57ce\u5bcc\u5170\u514b\u6797\u5b66\u4f1a\u535a\u7269\u9986\u5c55\u51fa\u65f6\uff0c\u88ab\u6e38\u5ba2\u7834\u574f\u5e76\u76d7\u8d70\u624b\u6307\u3002\u76ee\u524d\uff0c\u8be5\u4f5c\u6848\u7537\u5b50\u88ab\u902e\u6355\u540e\u4fdd\u91ca\uff0c\u9762\u4e34\u6700\u9ad8\u53ef\u8fbe\u6709\u671f\u5f92\u521130\u5e74\u7684\u5224\u51b3\u3002\u800c\u53e6\u4e00\u65b9\u9762\uff0c\u8d39\u57ce\u5e02\u653f\u5e9c\u5728\u65e5\u524d\u901a\u8fc7\u4e86\u4e00\u4efd\u51b3\u8bae\uff0c\u6b63\u5f0f\u5411\u4e2d\u65b9\u8fdb\u884c\u4e66\u9762\u9053\u6b49\u3002\u4ece\u5175\u9a6c\u4fd1\u88ab\u7834\u574f\u76d7\u7a83\u53ca\u88ab\u53d1\u73b0\u7684\u6574\u4e2a\u8fc7\u7a0b\u6765\u770b\uff0c\u5267\u60c5\u79bb\u5947\u4e14\u72d7\u8840\u3002\u66f4\u8ba9\u4eba\u53ef\u7b11\u53ef\u6c14\u7684\u662f\uff0c\u8087\u4e8b\u8005\u5728\u6848\u53d1\u7b2c\u4e8c\u5929\uff0c\u8fd8\u5728\u793e\u4ea4\u7f51\u7ad9\u4e0a\u6652\u51fa\u88ab\u6298\u65ad\u7684\u5175\u9a6c\u4fd1\u624b\u6307\u3002\u4e0e\u7316\u72c2\u7684\u87ca\u8d3c\u76f8\u6bd4\uff0c\u662f\u53cd\u5e94\u8fdf\u949d\u7684\u9986\u65b9\u300218\u5929\u4ee5\u540e\uff0c\u9986\u65b9\u5de5\u4f5c\u4eba\u5458\u624d\u53d1\u73b0\u5175\u9a6c\u4fd1\u6210\u4e86\u201c\u4e5d\u6307\u795e\u4e10\u201d\u3002\u5982\u4eca\u7f8e\u56fd\u65b9\u9762\u58f0\u660e\u9053\u6b49\u4e86\uff0c\u80c6\u5927\u5984\u4e3a\u7684\u87ca\u8d3c\u4e5f\u8981\u53d7\u5230\u5c06\u7262\u5e95\u5750\u7a7f\u7684\u60e9 ...
p1775
stp1776
Rp1777
sg10
(lp1778
g0
(g1
g2
(dp1779
g13
Vhttp://bbs.voc.com.cn/topic-8308209-1-1.html
p1780
sg15
g16
sg17
g18
stp1781
Rp1782
asg119
g61
((I2018
I4
I9
I3
I5
I18
I0
I99
I0
tp1783
(dp1784
tp1785
Rp1786
sg124
V\u8def\u897f\u534e
p1787
sg43
V\u5175\u9a6c\u4fd1\u8d74\u7f8e\u65ad\u6307\uff0c\u8fd8\u6709\u8c01\u8be5\u9053\u6b49
p1788
sg127
g1775
sS'title_detail'
p1789
g0
(g1
g2
(dp1790
g29
Vhttp://bbs.voc.com.cn/rss.php?fid=76
p1791
sg15
g31
sg21
Nsg32
g1788
stp1792
Rp1793
sg37
g1780
sg133
(lp1794
g0
(g1
g2
(dp1795
g136
g1787
stp1796
Rp1797
asS'author_detail'
p1798
g1797
sg140
(lp1799
g0
(g1
g2
(dp1800
g143
V\u8fa3\u773c\u65f6\u8bc4
p1801
sg145
Nsg146
Nstp1802
Rp1803
asg149
VMon, 09 Apr 2018 11:05:18 +0800
p1804
stp1805
Rp1806
ag0
(g1
g2
(dp1807
S'summary_detail'
p1808
g0
(g1
g2
(dp1809
g29
Vhttp://bbs.voc.com.cn/rss.php?fid=76
p1810
sg15
g49
sg21
Nsg32
V4\u67084\u65e5\uff0c\u592e\u89c6\u4e00\u5957\u521a\u521a\u64ad\u51fa\u7684\u7b2c\u4e09\u5b63\u300a\u4e2d\u56fd\u8bd7\u8bcd\u5927\u4f1a\u300b\u603b\u51b3\u8d5b\u4e0a\uff0c\u6765\u81ea\u676d\u5dde\u7684\u5916\u5356\u5c0f\u54e5\u96f7\u6d77\u4e3a\u9006\u88ad\u593a\u51a0\u3002\u51b3\u8d5b\u7684\u7b2c\u4e8c\u540d\u662f\u6765\u81ea\u5317\u4eac\u5927\u5b66\u7684\u6587\u5b66\u7855\u58eb\u5f6d\u654f\uff0c\u7b2c\u4e09\u540d\u662f\u56db\u5ddd\u5927\u5b66\u5b66\u751f\u97e9\u58a8\u8a00\u3002\u8282\u76ee\u662f\u5f55\u64ad\u7684\uff0c\u64ad\u51fa\u5f53\u5929\uff0c\u96f7\u6d77\u4e3a\u8fd8\u5728\u9a91\u7740\u7535\u52a8\u8f66\u9001\u5916\u5356\u3002\uff084\u67087\u65e5\u534e\u5546\u62a5\uff09\u8fd1\u65e5\u6765\uff0c\u201c\u5916\u5356\u5c0f\u54e5\u51fb\u8d25\u5317\u5927\u7855\u58eb\uff0c\u593a\u51a0\u4e2d\u56fd\u8bd7\u8bcd\u5927\u4f1a\u201d\u7684\u65b0\u95fb\u5237\u5c4f\uff0c\u4eba\u4eec\u70ed\u60c5\u6d0b\u6ea2\u5730\u4e3a\u5916\u5356\u5c0f\u54e5\u96f7\u6d77\u4e3a\u70b9\u8d5e\uff0c\u6709\u4eba\u751a\u81f3\u79f0\u4ed6\u4e3a\u201c\u8bd7\u575b\u626b\u5730\u50e7\u201d\u3002\u6211\u4ee5\u4e3a\uff0c
p1811
stp1812
Rp1813
sg10
(lp1814
g0
(g1
g2
(dp1815
g13
Vhttp://bbs.voc.com.cn/topic-8306116-1-1.html
p1816
sg15
g16
sg17
g18
stp1817
Rp1818
asg119
g61
((I2018
I4
I7
I4
I30
I44
I5
I97
I0
tp1819
(dp1820
tp1821
Rp1822
sg124
V\u674e\u84ec\u56fd
p1823
sg43
V\u674e\u84ec\u56fd\uff1a\u5916\u5356\u5c0f\u54e5\u593a\u51a0\uff0c\u8fd9\u4e2a\u4e16\u754c\u4e0d\u7f3a\u201c\u8bd7\u6280\u201d\u7f3a\u201c\u8bd7\u5fc3\u201d
p1824
sg127
g1811
sS'title_detail'
p1825
g0
(g1
g2
(dp1826
g29
Vhttp://bbs.voc.com.cn/rss.php?fid=76
p1827
sg15
g31
sg21
Nsg32
g1824
stp1828
Rp1829
sg37
g1816
sg133
(lp1830
g0
(g1
g2
(dp1831
g136
g1823
stp1832
Rp1833
asS'author_detail'
p1834
g1833
sg140
(lp1835
g0
(g1
g2
(dp1836
g143
V\u8fa3\u773c\u65f6\u8bc4
p1837
sg145
Nsg146
Nstp1838
Rp1839
asg149
VSat, 07 Apr 2018 12:30:44 +0800
p1840
stp1841
Rp1842
ag0
(g1
g2
(dp1843
S'summary_detail'
p1844
g0
(g1
g2
(dp1845
g29
Vhttp://bbs.voc.com.cn/rss.php?fid=76
p1846
sg15
g49
sg21
Nsg32
V\u5e7f\u5dde\u7684\u6797\u5148\u751f\u6765\u957f\u6c99\u51fa\u5dee\uff0c\u4ed6\u63d0\u524d\u4e00\u5929\u5c31\u5728\u53bb\u54ea\u513f\u7f51\u5e73\u53f0\u4e0a\u9884\u8ba2\u4e86\u4e00\u5bb6\u540d\u53eb\u201c\u957f\u6c99\u78c1\u6d6e\u9152\u5e97\u516c\u5bd3\u201d\u7684\u8c6a\u534e\u5927\u5e8a\u623f\u3002\u6839\u636e\u5e73\u53f0\u63d0\u4f9b\u7684\u4fe1\u606f\uff0c\u8fd9\u5bb6\u516c\u5bd3\u5c31\u5728\u51fa\u7ad920\u7c73\u5904\u3002\u7136\u800c\u4e0b\u4e86\u9ad8\u94c1\u4e4b\u540e\uff0c\u6797\u5148\u751f\u662f\u600e\u4e48\u4e5f\u627e\u4e0d\u5230\u8fd9\u5bb6\u9152\u5e97\u3002\u6797\u5148\u751f\u6025\u5fd9\u8054\u7cfb\u5e97\u5bb6\uff0c\u5374\u88ab\u5148\u540e\u5e26\u5230\u4e86\u5176\u4ed6\u4e24\u5bb6\u9152\u5e97\u3002\u8fd9\u662f\u600e\u4e48\u56de\u4e8b\u5462\uff1f
p1847
stp1848
Rp1849
sg10
(lp1850
g0
(g1
g2
(dp1851
g13
Vhttp://bbs.voc.com.cn/topic-8308149-1-1.html
p1852
sg15
g16
sg17
g18
stp1853
Rp1854
asg119
g61
((I2018
I4
I9
I2
I46
I31
I0
I99
I0
tp1855
(dp1856
tp1857
Rp1858
sg124
V007
p1859
sg43
V\u53bb\u54ea\u513f\u7f51\u73b0\u201c\u5e7d\u7075\u9152\u5e97\u201d \uff01\u7537\u5b50\u5b9a\u201c\u8c6a\u534e\u5927\u5e8a\u623f\u201d\u5374\u662f\u4e00\u7247\u8352\u5730
p1860
sg127
g1847
sS'title_detail'
p1861
g0
(g1
g2
(dp1862
g29
Vhttp://bbs.voc.com.cn/rss.php?fid=76
p1863
sg15
g31
sg21
Nsg32
g1860
stp1864
Rp1865
sg37
g1852
sg133
(lp1866
g0
(g1
g2
(dp1867
g136
g1859
stp1868
Rp1869
asS'author_detail'
p1870
g1869
sg140
(lp1871
g0
(g1
g2
(dp1872
g143
V\u8fa3\u773c\u65f6\u8bc4
p1873
sg145
Nsg146
Nstp1874
Rp1875
asg149
VMon, 09 Apr 2018 10:46:31 +0800
p1876
stp1877
Rp1878
ag0
(g1
g2
(dp1879
S'summary_detail'
p1880
g0
(g1
g2
(dp1881
g29
Vhttp://bbs.voc.com.cn/rss.php?fid=76
p1882
sg15
g49
sg21
Nsg32
V\u4eca\u65e5\u8981\u95fb\u8bc4\u8bba\u6c88\u9633\u7537\u5b50\u6301\u94a2\u73e0\u67aa\u6740\u6b7b3\u540d\u6751\u6c11\u88ab\u56f4\u6355\u65f6\u81ea\u6740\u8bc4\u8bba\uff1a\u54c0\u60bc\u4e00\u4e0b\u3002\u6740\u4eba\u662f\u5783\u573e\u884c\u4e3a\u3002\u766b\u72c2\u7684\u8868\u73b0\u3002\u65e5\u672c14\u5c81\u795e\u7ae5\u80dc\u56fd\u4e52\u4e00\u54e5\u540e\u518d\u53eb\u56a3\uff1a\u4e16\u4e52\u8d5b\u518d\u91cd\u521b\u4e2d\u56fd\u8bc4\u8bba\uff1a\u5fcd\u5fcd\u5427\u3002\u65e0\u6240\u8c13\u7684\u3002\u4e00\u5207\u90fd\u4f1a\u6709\u62a5\u5e94\u7684\u3002\u5a92\u4f53\uff1a\u7279\u6717\u666e\u7a81\u7136\u53e3\u6c14\u8f6c\u6e29\u548c\u4e2d\u65b9\u9700\u8c28\u614e\u8bc4\u8bba\uff1a\u4e0d\u8981\u5927\u60ca\u5c0f\u602a\u3002\u9676\u5d07\u56ed\u59d0\u59d0\u4e0d\u6ee1\u6821\u65b9\u5904\u7406\uff1a\u5c06\u8981\u6c42\u64a4\u9500\u738b\u6500\u6559\u5e08\u8d44\u683c\u8bc4\u8bba\uff1a\u5f97\u9976\u4eba\u5904\u4e14\u9976\u4eba\u3002\u5947\u8469\uff01\u5973\u5b50\u56e0\u201c\u8c8c\u7f8e\u5982\u82b1\u4e0d\u60f3\u4e0a\u73ed\u201d\u4e3d\u6c5f\u4e5e\u8ba8\u8bc4\u8bba\uff1a\u6ca1\u5fc5\u8981\u5199\u51fa\u6765\u3002\u6240\u6709\u7537\u4eba\u90fd\u662f\u6f5c\u5728\u5f3a\u5978\u72af\uff1f\u5927V\u7684\u8a00\u8bba\u8ba9\u7f51\u53cb\u5435\u7ffb\u4e86\u8bc4\u8bba\uff1a\u80e1\u8bf4\u516b\u9053\u3002\u6734\u69ff\u60e0\u88ab\u6587\u5728\u5bc5\u7279\u8d66\uff1f\u97e9\u5a92\uff1a\u5979\u5f97\u5148\u8fc7\u8fd93\u5ea7\u5927\u5c71\u8bc4\u8bba\uff1a\u770b\u770b\u3002\u4eba\u6c11\u65e5\u62a5\u6d77 ...
p1883
stp1884
Rp1885
sg10
(lp1886
g0
(g1
g2
(dp1887
g13
Vhttp://bbs.voc.com.cn/topic-8307944-1-1.html
p1888
sg15
g16
sg17
g18
stp1889
Rp1890
asg119
g61
((I2018
I4
I9
I1
I23
I20
I0
I99
I0
tp1891
(dp1892
tp1893
Rp1894
sg124
Vmitankilor
p1895
sg43
V\u4eca\u65e5\u8981\u95fb\u8bc4\u8bba[\u539f\u521b]
p1896
sg127
g1883
sS'title_detail'
p1897
g0
(g1
g2
(dp1898
g29
Vhttp://bbs.voc.com.cn/rss.php?fid=76
p1899
sg15
g31
sg21
Nsg32
g1896
stp1900
Rp1901
sg37
g1888
sg133
(lp1902
g0
(g1
g2
(dp1903
g136
g1895
stp1904
Rp1905
asS'author_detail'
p1906
g1905
sg140
(lp1907
g0
(g1
g2
(dp1908
g143
V\u8fa3\u773c\u65f6\u8bc4
p1909
sg145
Nsg146
Nstp1910
Rp1911
asg149
VMon, 09 Apr 2018 09:23:20 +0800
p1912
stp1913
Rp1914
asS'namespaces'
p1915
(dp1916
stp1917
Rp1918
.